SF:/mnt/d/Projects/measurekit/measurekit_core/src/covariance.rs
FN:193,_RNCNCNvMNtCsiHEayBwtz3f_15measurekit_core10covarianceNtB6_15CovarianceStore23prune_weak_correlations00B8_
FN:166,_RNCNvMNtCsiHEayBwtz3f_15measurekit_core10covarianceNtB4_15CovarianceStore12prune_by_age0B6_
FN:170,_RNCNvMNtCsiHEayBwtz3f_15measurekit_core10covarianceNtB4_15CovarianceStore12prune_by_ages0_0B6_
FN:181,_RNCNvMNtCsiHEayBwtz3f_15measurekit_core10covarianceNtB4_15CovarianceStore22collect_variance_norms0B6_
FN:127,_RNCNvMNtCsiHEayBwtz3f_15measurekit_core10covarianceNtB4_15CovarianceStore22try_add_cross_cov_term0B6_
FN:132,_RNCNvMNtCsiHEayBwtz3f_15measurekit_core10covarianceNtB4_15CovarianceStore22try_add_cross_cov_terms_0B6_
FN:191,_RNCNvMNtCsiHEayBwtz3f_15measurekit_core10covarianceNtB4_15CovarianceStore23prune_weak_correlations0B6_
FN:358,_RNCNvMsp_NtCsiHEayBwtz3f_15measurekit_core10covarianceNtB7_15CovarianceStore12___setstate__0B9_
FN:386,_RNCNvMsp_NtCsiHEayBwtz3f_15measurekit_core10covarianceNtB7_15CovarianceStore12___setstate__s0_0B9_
FN:389,_RNCNvMsp_NtCsiHEayBwtz3f_15measurekit_core10covarianceNtB7_15CovarianceStore12___setstate__s1_0B9_
FN:364,_RNCNvMsp_NtCsiHEayBwtz3f_15measurekit_core10covarianceNtB7_15CovarianceStore12___setstate__s_0B9_
FN:414,_RNCNvMsp_NtCsiHEayBwtz3f_15measurekit_core10covarianceNtB7_15CovarianceStore16get_block_csr_py0B9_
FN:415,_RNCNvMsp_NtCsiHEayBwtz3f_15measurekit_core10covarianceNtB7_15CovarianceStore16get_block_csr_pys_0B9_
FN:340,_RNCNvMsp_NtCsiHEayBwtz3f_15measurekit_core10covarianceNtB7_15CovarianceStore8to_arrow0B9_
FN:252,_RNCNvMsp_NtCsiHEayBwtz3f_15measurekit_core10covarianceNtB7_15CovarianceStore9propagate0B9_
FN:437,_RNvNtNtCsiHEayBwtz3f_15measurekit_core10covariance5tests10make_store
FN:455,_RNvNtNtCsiHEayBwtz3f_15measurekit_core10covariance5tests10mat_to_vec
FN:446,_RNvNtNtCsiHEayBwtz3f_15measurekit_core10covariance5tests4diag
FN:766,_RNvNtNtCsiHEayBwtz3f_15measurekit_core10covariance5testss_19propagate_via_numpy
FN:725,_RNvNtNtCsiHEayBwtz3f_15measurekit_core10covariance5testss_22numpy_to_csr_1d_vector
FN:712,_RNvNtNtCsiHEayBwtz3f_15measurekit_core10covariance5testss_22numpy_to_csr_2d_matrix
FN:490,_RNvNtNtCsiHEayBwtz3f_15measurekit_core10covariance5testss_25commit_cross_covs_ordered
FN:696,_RNvNtNtCsiHEayBwtz3f_15measurekit_core10covariance5testss_27to_arrow_setstate_roundtrip
FN:663,_RNvNtNtCsiHEayBwtz3f_15measurekit_core10covariance5testss_28covariance_store_new_default
FN:782,_RNvNtNtCsiHEayBwtz3f_15measurekit_core10covariance5testss_28get_block_csr_py_returns_csr
FN:647,_RNvNtNtCsiHEayBwtz3f_15measurekit_core10covariance5testss_28pruning_config_new_and_state
FN:501,_RNvNtNtCsiHEayBwtz3f_15measurekit_core10covariance5testss_30commit_cross_covs_reversed_key
FN:805,_RNvNtNtCsiHEayBwtz3f_15measurekit_core10covariance5testss_30numpy_to_csr_3d_fallback_empty
FN:554,_RNvNtNtCsiHEayBwtz3f_15measurekit_core10covariance5testss_30prune_strong_correlations_kept
FN:751,_RNvNtNtCsiHEayBwtz3f_15measurekit_core10covariance5testss_30register_diagonal_stores_block
FN:738,_RNvNtNtCsiHEayBwtz3f_15measurekit_core10covariance5testss_30register_variable_stores_block
FN:474,_RNvNtNtCsiHEayBwtz3f_15measurekit_core10covariance5testss_32compute_variance_scalar_jacobian
FN:521,_RNvNtNtCsiHEayBwtz3f_15measurekit_core10covariance5testss_33prune_by_age_removes_stale_blocks
FN:464,_RNvNtNtCsiHEayBwtz3f_15measurekit_core10covariance5testss_34compute_variance_identity_jacobian
FN:819,_RNvNtNtCsiHEayBwtz3f_15measurekit_core10covariance5testss_34covariance_store_getstate_setstate
FN:671,_RNvNtNtCsiHEayBwtz3f_15measurekit_core10covariance5testss_34covariance_store_new_custom_config
FN:593,_RNvNtNtCsiHEayBwtz3f_15measurekit_core10covariance5testss_35get_block_internal_transpose_branch
FN:620,_RNvNtNtCsiHEayBwtz3f_15measurekit_core10covariance5testss_36accumulate_cross_covs_transpose_path
FN:511,_RNvNtNtCsiHEayBwtz3f_15measurekit_core10covariance5testss_36collect_variance_norms_diagonal_only
FN:679,_RNvNtNtCsiHEayBwtz3f_15measurekit_core10covariance5testss_36pymethods_prune_triggers_both_phases
FN:795,_RNvNtNtCsiHEayBwtz3f_15measurekit_core10covariance5testss_37get_block_csr_py_missing_returns_none
FN:829,_RNvNtNtCsiHEayBwtz3f_15measurekit_core10covariance5testss_37propagate_triggers_prune_when_enabled
FN:569,_RNvNtNtCsiHEayBwtz3f_15measurekit_core10covariance5testss_38accumulate_cross_covs_one_shared_input
FN:634,_RNvNtNtCsiHEayBwtz3f_15measurekit_core10covariance5testss_39prune_by_age_no_op_when_nothing_expired
FN:583,_RNvNtNtCsiHEayBwtz3f_15measurekit_core10covariance5testss_40accumulate_cross_covs_excludes_output_id
FN:484,_RNvNtNtCsiHEayBwtz3f_15measurekit_core10covariance5testss_43compute_variance_returns_none_when_no_block
FN:606,_RNvNtNtCsiHEayBwtz3f_15measurekit_core10covariance5testss_45compute_variance_two_inputs_covers_cross_term
FN:536,_RNvNtNtCsiHEayBwtz3f_15measurekit_core10covariance5testss_47prune_weak_correlations_removes_below_threshold
FN:768,_RNCNvNtNtCsiHEayBwtz3f_15measurekit_core10covariance5testss_19propagate_via_numpy0B7_
FN:727,_RNCNvNtNtCsiHEayBwtz3f_15measurekit_core10covariance5testss_22numpy_to_csr_1d_vector0B7_
FN:714,_RNCNvNtNtCsiHEayBwtz3f_15measurekit_core10covariance5testss_22numpy_to_csr_2d_matrix0B7_
FN:784,_RNCNvNtNtCsiHEayBwtz3f_15measurekit_core10covariance5testss_28get_block_csr_py_returns_csr0B7_
FN:807,_RNCNvNtNtCsiHEayBwtz3f_15measurekit_core10covariance5testss_30numpy_to_csr_3d_fallback_empty0B7_
FN:753,_RNCNvNtNtCsiHEayBwtz3f_15measurekit_core10covariance5testss_30register_diagonal_stores_block0B7_
FN:740,_RNCNvNtNtCsiHEayBwtz3f_15measurekit_core10covariance5testss_30register_variable_stores_block0B7_
FN:797,_RNCNvNtNtCsiHEayBwtz3f_15measurekit_core10covariance5testss_37get_block_csr_py_missing_returns_none0B7_
FN:831,_RNCNvNtNtCsiHEayBwtz3f_15measurekit_core10covariance5testss_37propagate_triggers_prune_when_enabled0B7_
FN:67,_RNvMNtCsiHEayBwtz3f_15measurekit_core10covarianceNtB2_15CovarianceStore12numpy_to_csr
FN:162,_RNvMNtCsiHEayBwtz3f_15measurekit_core10covarianceNtB2_15CovarianceStore12prune_by_age
FN:152,_RNvMNtCsiHEayBwtz3f_15measurekit_core10covarianceNtB2_15CovarianceStore17commit_cross_covs
FN:57,_RNvMNtCsiHEayBwtz3f_15measurekit_core10covarianceNtB2_15CovarianceStore18get_block_internal
FN:135,_RNvMNtCsiHEayBwtz3f_15measurekit_core10covarianceNtB2_15CovarianceStore21accumulate_cross_covs
FN:177,_RNvMNtCsiHEayBwtz3f_15measurekit_core10covarianceNtB2_15CovarianceStore22collect_variance_norms
FN:116,_RNvMNtCsiHEayBwtz3f_15measurekit_core10covarianceNtB2_15CovarianceStore22try_add_cross_cov_term
FN:95,_RNvMNtCsiHEayBwtz3f_15measurekit_core10covarianceNtB2_15CovarianceStore23compute_output_variance
FN:187,_RNvMNtCsiHEayBwtz3f_15measurekit_core10covarianceNtB2_15CovarianceStore23prune_weak_correlations
FN:37,_RNvMsc_NtCsiHEayBwtz3f_15measurekit_core10covarianceNtB5_13PruningConfig12___getstate__
FN:41,_RNvMsc_NtCsiHEayBwtz3f_15measurekit_core10covarianceNtB5_13PruningConfig12___setstate__
FN:33,_RNvMsc_NtCsiHEayBwtz3f_15measurekit_core10covarianceNtB5_13PruningConfig3new
FN:28,_RNvMse_NtCsiHEayBwtz3f_15measurekit_core10covarianceNtB5_13PruningConfig25___pymethod___getstate____
FN:351,_RNvMsp_NtCsiHEayBwtz3f_15measurekit_core10covarianceNtB5_15CovarianceStore12___getstate__
FN:355,_RNvMsp_NtCsiHEayBwtz3f_15measurekit_core10covarianceNtB5_15CovarianceStore12___setstate__
FN:402,_RNvMsp_NtCsiHEayBwtz3f_15measurekit_core10covarianceNtB5_15CovarianceStore16get_block_csr_py
FN:229,_RNvMsp_NtCsiHEayBwtz3f_15measurekit_core10covarianceNtB5_15CovarianceStore17register_diagonal
FN:221,_RNvMsp_NtCsiHEayBwtz3f_15measurekit_core10covarianceNtB5_15CovarianceStore17register_variable
FN:210,_RNvMsp_NtCsiHEayBwtz3f_15measurekit_core10covarianceNtB5_15CovarianceStore3new
FN:423,_RNvMsp_NtCsiHEayBwtz3f_15measurekit_core10covarianceNtB5_15CovarianceStore5prune
FN:267,_RNvMsp_NtCsiHEayBwtz3f_15measurekit_core10covarianceNtB5_15CovarianceStore8to_arrow
FN:244,_RNvMsp_NtCsiHEayBwtz3f_15measurekit_core10covarianceNtB5_15CovarianceStore9propagate
FN:206,_RNvMsr_NtCsiHEayBwtz3f_15measurekit_core10covarianceNtB5_15CovarianceStore18___pymethod_prune__
FN:206,_RNvMsr_NtCsiHEayBwtz3f_15measurekit_core10covarianceNtB5_15CovarianceStore21___pymethod_to_arrow__
FN:206,_RNvMsr_NtCsiHEayBwtz3f_15measurekit_core10covarianceNtB5_15CovarianceStore25___pymethod___getstate____
FNDA:2,_RNCNCNvMNtCsiHEayBwtz3f_15measurekit_core10covarianceNtB6_15CovarianceStore23prune_weak_correlations00B8_
FNDA:7,_RNCNvMNtCsiHEayBwtz3f_15measurekit_core10covarianceNtB4_15CovarianceStore12prune_by_age0B6_
FNDA:5,_RNCNvMNtCsiHEayBwtz3f_15measurekit_core10covarianceNtB4_15CovarianceStore12prune_by_ages0_0B6_
FNDA:7,_RNCNvMNtCsiHEayBwtz3f_15measurekit_core10covarianceNtB4_15CovarianceStore22collect_variance_norms0B6_
FNDA:9,_RNCNvMNtCsiHEayBwtz3f_15measurekit_core10covarianceNtB4_15CovarianceStore22try_add_cross_cov_term0B6_
FNDA:0,_RNCNvMNtCsiHEayBwtz3f_15measurekit_core10covarianceNtB4_15CovarianceStore22try_add_cross_cov_terms_0B6_
FNDA:7,_RNCNvMNtCsiHEayBwtz3f_15measurekit_core10covarianceNtB4_15CovarianceStore23prune_weak_correlations0B6_
FNDA:0,_RNCNvMsp_NtCsiHEayBwtz3f_15measurekit_core10covarianceNtB7_15CovarianceStore12___setstate__0B9_
FNDA:5,_RNCNvMsp_NtCsiHEayBwtz3f_15measurekit_core10covarianceNtB7_15CovarianceStore12___setstate__s0_0B9_
FNDA:8,_RNCNvMsp_NtCsiHEayBwtz3f_15measurekit_core10covarianceNtB7_15CovarianceStore12___setstate__s1_0B9_
FNDA:0,_RNCNvMsp_NtCsiHEayBwtz3f_15measurekit_core10covarianceNtB7_15CovarianceStore12___setstate__s_0B9_
FNDA:2,_RNCNvMsp_NtCsiHEayBwtz3f_15measurekit_core10covarianceNtB7_15CovarianceStore16get_block_csr_py0B9_
FNDA:3,_RNCNvMsp_NtCsiHEayBwtz3f_15measurekit_core10covarianceNtB7_15CovarianceStore16get_block_csr_pys_0B9_
FNDA:0,_RNCNvMsp_NtCsiHEayBwtz3f_15measurekit_core10covarianceNtB7_15CovarianceStore8to_arrow0B9_
FNDA:2,_RNCNvMsp_NtCsiHEayBwtz3f_15measurekit_core10covarianceNtB7_15CovarianceStore9propagate0B9_
FNDA:17,_RNvNtNtCsiHEayBwtz3f_15measurekit_core10covariance5tests10make_store
FNDA:4,_RNvNtNtCsiHEayBwtz3f_15measurekit_core10covariance5tests10mat_to_vec
FNDA:39,_RNvNtNtCsiHEayBwtz3f_15measurekit_core10covariance5tests4diag
FNDA:1,_RNvNtNtCsiHEayBwtz3f_15measurekit_core10covariance5testss_19propagate_via_numpy
FNDA:1,_RNvNtNtCsiHEayBwtz3f_15measurekit_core10covariance5testss_22numpy_to_csr_1d_vector
FNDA:1,_RNvNtNtCsiHEayBwtz3f_15measurekit_core10covariance5testss_22numpy_to_csr_2d_matrix
FNDA:1,_RNvNtNtCsiHEayBwtz3f_15measurekit_core10covariance5testss_25commit_cross_covs_ordered
FNDA:1,_RNvNtNtCsiHEayBwtz3f_15measurekit_core10covariance5testss_27to_arrow_setstate_roundtrip
FNDA:1,_RNvNtNtCsiHEayBwtz3f_15measurekit_core10covariance5testss_28covariance_store_new_default
FNDA:1,_RNvNtNtCsiHEayBwtz3f_15measurekit_core10covariance5testss_28get_block_csr_py_returns_csr
FNDA:1,_RNvNtNtCsiHEayBwtz3f_15measurekit_core10covariance5testss_28pruning_config_new_and_state
FNDA:1,_RNvNtNtCsiHEayBwtz3f_15measurekit_core10covariance5testss_30commit_cross_covs_reversed_key
FNDA:1,_RNvNtNtCsiHEayBwtz3f_15measurekit_core10covariance5testss_30numpy_to_csr_3d_fallback_empty
FNDA:1,_RNvNtNtCsiHEayBwtz3f_15measurekit_core10covariance5testss_30prune_strong_correlations_kept
FNDA:1,_RNvNtNtCsiHEayBwtz3f_15measurekit_core10covariance5testss_30register_diagonal_stores_block
FNDA:1,_RNvNtNtCsiHEayBwtz3f_15measurekit_core10covariance5testss_30register_variable_stores_block
FNDA:1,_RNvNtNtCsiHEayBwtz3f_15measurekit_core10covariance5testss_32compute_variance_scalar_jacobian
FNDA:1,_RNvNtNtCsiHEayBwtz3f_15measurekit_core10covariance5testss_33prune_by_age_removes_stale_blocks
FNDA:1,_RNvNtNtCsiHEayBwtz3f_15measurekit_core10covariance5testss_34compute_variance_identity_jacobian
FNDA:1,_RNvNtNtCsiHEayBwtz3f_15measurekit_core10covariance5testss_34covariance_store_getstate_setstate
FNDA:1,_RNvNtNtCsiHEayBwtz3f_15measurekit_core10covariance5testss_34covariance_store_new_custom_config
FNDA:1,_RNvNtNtCsiHEayBwtz3f_15measurekit_core10covariance5testss_35get_block_internal_transpose_branch
FNDA:1,_RNvNtNtCsiHEayBwtz3f_15measurekit_core10covariance5testss_36accumulate_cross_covs_transpose_path
FNDA:1,_RNvNtNtCsiHEayBwtz3f_15measurekit_core10covariance5testss_36collect_variance_norms_diagonal_only
FNDA:1,_RNvNtNtCsiHEayBwtz3f_15measurekit_core10covariance5testss_36pymethods_prune_triggers_both_phases
FNDA:1,_RNvNtNtCsiHEayBwtz3f_15measurekit_core10covariance5testss_37get_block_csr_py_missing_returns_none
FNDA:1,_RNvNtNtCsiHEayBwtz3f_15measurekit_core10covariance5testss_37propagate_triggers_prune_when_enabled
FNDA:1,_RNvNtNtCsiHEayBwtz3f_15measurekit_core10covariance5testss_38accumulate_cross_covs_one_shared_input
FNDA:1,_RNvNtNtCsiHEayBwtz3f_15measurekit_core10covariance5testss_39prune_by_age_no_op_when_nothing_expired
FNDA:1,_RNvNtNtCsiHEayBwtz3f_15measurekit_core10covariance5testss_40accumulate_cross_covs_excludes_output_id
FNDA:1,_RNvNtNtCsiHEayBwtz3f_15measurekit_core10covariance5testss_43compute_variance_returns_none_when_no_block
FNDA:1,_RNvNtNtCsiHEayBwtz3f_15measurekit_core10covariance5testss_45compute_variance_two_inputs_covers_cross_term
FNDA:1,_RNvNtNtCsiHEayBwtz3f_15measurekit_core10covariance5testss_47prune_weak_correlations_removes_below_threshold
FNDA:1,_RNCNvNtNtCsiHEayBwtz3f_15measurekit_core10covariance5testss_19propagate_via_numpy0B7_
FNDA:1,_RNCNvNtNtCsiHEayBwtz3f_15measurekit_core10covariance5testss_22numpy_to_csr_1d_vector0B7_
FNDA:1,_RNCNvNtNtCsiHEayBwtz3f_15measurekit_core10covariance5testss_22numpy_to_csr_2d_matrix0B7_
FNDA:1,_RNCNvNtNtCsiHEayBwtz3f_15measurekit_core10covariance5testss_28get_block_csr_py_returns_csr0B7_
FNDA:1,_RNCNvNtNtCsiHEayBwtz3f_15measurekit_core10covariance5testss_30numpy_to_csr_3d_fallback_empty0B7_
FNDA:1,_RNCNvNtNtCsiHEayBwtz3f_15measurekit_core10covariance5testss_30register_diagonal_stores_block0B7_
FNDA:1,_RNCNvNtNtCsiHEayBwtz3f_15measurekit_core10covariance5testss_30register_variable_stores_block0B7_
FNDA:1,_RNCNvNtNtCsiHEayBwtz3f_15measurekit_core10covariance5testss_37get_block_csr_py_missing_returns_none0B7_
FNDA:1,_RNCNvNtNtCsiHEayBwtz3f_15measurekit_core10covariance5testss_37propagate_triggers_prune_when_enabled0B7_
FNDA:8,_RNvMNtCsiHEayBwtz3f_15measurekit_core10covarianceNtB2_15CovarianceStore12numpy_to_csr
FNDA:4,_RNvMNtCsiHEayBwtz3f_15measurekit_core10covarianceNtB2_15CovarianceStore12prune_by_age
FNDA:4,_RNvMNtCsiHEayBwtz3f_15measurekit_core10covarianceNtB2_15CovarianceStore17commit_cross_covs
FNDA:13,_RNvMNtCsiHEayBwtz3f_15measurekit_core10covarianceNtB2_15CovarianceStore18get_block_internal
FNDA:5,_RNvMNtCsiHEayBwtz3f_15measurekit_core10covarianceNtB2_15CovarianceStore21accumulate_cross_covs
FNDA:4,_RNvMNtCsiHEayBwtz3f_15measurekit_core10covarianceNtB2_15CovarianceStore22collect_variance_norms
FNDA:12,_RNvMNtCsiHEayBwtz3f_15measurekit_core10covarianceNtB2_15CovarianceStore22try_add_cross_cov_term
FNDA:6,_RNvMNtCsiHEayBwtz3f_15measurekit_core10covarianceNtB2_15CovarianceStore23compute_output_variance
FNDA:3,_RNvMNtCsiHEayBwtz3f_15measurekit_core10covarianceNtB2_15CovarianceStore23prune_weak_correlations
FNDA:1,_RNvMsc_NtCsiHEayBwtz3f_15measurekit_core10covarianceNtB5_13PruningConfig12___getstate__
FNDA:1,_RNvMsc_NtCsiHEayBwtz3f_15measurekit_core10covarianceNtB5_13PruningConfig12___setstate__
FNDA:1,_RNvMsc_NtCsiHEayBwtz3f_15measurekit_core10covarianceNtB5_13PruningConfig3new
FNDA:0,_RNvMse_NtCsiHEayBwtz3f_15measurekit_core10covarianceNtB5_13PruningConfig25___pymethod___getstate____
FNDA:1,_RNvMsp_NtCsiHEayBwtz3f_15measurekit_core10covarianceNtB5_15CovarianceStore12___getstate__
FNDA:2,_RNvMsp_NtCsiHEayBwtz3f_15measurekit_core10covarianceNtB5_15CovarianceStore12___setstate__
FNDA:2,_RNvMsp_NtCsiHEayBwtz3f_15measurekit_core10covarianceNtB5_15CovarianceStore16get_block_csr_py
FNDA:1,_RNvMsp_NtCsiHEayBwtz3f_15measurekit_core10covarianceNtB5_15CovarianceStore17register_diagonal
FNDA:3,_RNvMsp_NtCsiHEayBwtz3f_15measurekit_core10covarianceNtB5_15CovarianceStore17register_variable
FNDA:6,_RNvMsp_NtCsiHEayBwtz3f_15measurekit_core10covarianceNtB5_15CovarianceStore3new
FNDA:2,_RNvMsp_NtCsiHEayBwtz3f_15measurekit_core10covarianceNtB5_15CovarianceStore5prune
FNDA:2,_RNvMsp_NtCsiHEayBwtz3f_15measurekit_core10covarianceNtB5_15CovarianceStore8to_arrow
FNDA:2,_RNvMsp_NtCsiHEayBwtz3f_15measurekit_core10covarianceNtB5_15CovarianceStore9propagate
FNDA:0,_RNvMsr_NtCsiHEayBwtz3f_15measurekit_core10covarianceNtB5_15CovarianceStore18___pymethod_prune__
FNDA:0,_RNvMsr_NtCsiHEayBwtz3f_15measurekit_core10covarianceNtB5_15CovarianceStore21___pymethod_to_arrow__
FNDA:0,_RNvMsr_NtCsiHEayBwtz3f_15measurekit_core10covarianceNtB5_15CovarianceStore25___pymethod___getstate____
FNF:80
FNH:74

DA:33,1
DA:34,1
DA:35,1
DA:37,1
DA:38,1
DA:39,1
DA:41,1
DA:42,1
DA:43,1
DA:44,1
DA:45,1
DA:57,13
DA:58,13
DA:59,13
DA:60,11
DA:61,9
DA:63,2
DA:65,13
DA:67,8
DA:68,8
DA:70,8
DA:71,6
DA:72,6
DA:73,24
DA:74,24
DA:75,12
DA:76,12
DA:78,6
DA:79,2
DA:81,2
DA:82,1
DA:83,1
DA:84,3
DA:85,3
DA:86,3
DA:87,3
DA:89,1
DA:90,1
DA:92,1
DA:93,8
DA:95,6
DA:96,6
DA:97,7
DA:98,9
DA:99,9
DA:100,8
DA:101,6
DA:103,2
DA:104,2
DA:106,8
DA:107,3
DA:108,5
DA:110,1
DA:113,6
DA:114,6
DA:116,12
DA:117,12
DA:118,12
DA:119,12
DA:120,12
DA:121,12
DA:122,12
DA:123,12
DA:124,12
DA:125,12
DA:126,12
DA:127,9
DA:128,6
DA:129,6
DA:130,6
DA:131,6
DA:132,6
DA:133,12
DA:135,5
DA:136,5
DA:137,5
DA:138,5
DA:139,5
DA:140,5
DA:141,5
DA:142,5
DA:143,9
DA:144,9
DA:145,9
DA:146,3
DA:147,6
DA:149,5
DA:150,5
DA:152,4
DA:153,4
DA:154,4
DA:155,1
DA:156,3
DA:157,3
DA:158,3
DA:160,4
DA:162,4
DA:163,4
DA:164,4
DA:165,4
DA:166,7
DA:167,4
DA:168,4
DA:169,4
DA:170,5
DA:171,2
DA:172,2
DA:173,2
DA:174,2
DA:175,4
DA:177,4
DA:178,4
DA:179,9
DA:180,9
DA:181,7
DA:182,3
DA:184,4
DA:185,4
DA:187,3
DA:188,3
DA:189,3
DA:190,3
DA:191,7
DA:192,7
DA:193,2
DA:194,2
DA:195,2
DA:196,2
DA:197,2
DA:198,7
DA:199,3
DA:200,3
DA:201,1
DA:202,1
DA:203,3

DA:210,6
DA:211,6
DA:212,6
DA:213,6
DA:214,6
DA:215,6
DA:216,6
DA:217,6
DA:218,6
DA:221,3
DA:222,3
DA:223,3
DA:224,3
DA:225,3
DA:226,3
DA:229,1
DA:230,1
DA:231,1
DA:232,1
DA:233,3
DA:234,3
DA:235,3
DA:236,3
DA:238,1
DA:239,1
DA:240,1
DA:241,1
DA:244,2
DA:245,2
DA:246,2
DA:247,2
DA:248,2
DA:249,2
DA:250,2
DA:251,2
DA:252,2
DA:254,2
DA:255,2
DA:256,2
DA:258,2
DA:259,2
DA:261,2
DA:262,1
DA:263,1
DA:264,2
DA:265,2
DA:267,2
DA:268,2
DA:269,2
DA:271,2
DA:272,2
DA:273,2
DA:274,2
DA:276,2
DA:277,2
DA:278,2
DA:280,3
DA:281,3
DA:282,3
DA:283,3
DA:284,3
DA:285,3
DA:289,3
DA:290,3
DA:293,3
DA:294,3
DA:297,5
DA:298,5
DA:299,5
DA:300,3
DA:303,8
DA:304,8
DA:305,8
DA:306,3
DA:310,2
DA:311,2
DA:312,2
DA:313,2
DA:314,2
DA:315,2
DA:316,2
DA:319,2
DA:320,2
DA:321,2
DA:322,2
DA:323,2
DA:324,2
DA:325,2
DA:326,2
DA:329,2
DA:330,2
DA:331,2
DA:332,2
DA:333,2
DA:334,2
DA:335,2
DA:336,2
DA:337,2
DA:338,2
DA:340,2
DA:342,2
DA:343,2
DA:344,2
DA:345,2
DA:346,2
DA:347,2
DA:348,2
DA:349,2
DA:351,1
DA:352,1
DA:353,1
DA:355,2
DA:356,2
DA:357,2
DA:358,2
DA:361,2
DA:363,2
DA:364,2
DA:366,2
DA:367,2
DA:368,2
DA:369,2
DA:371,2
DA:372,2
DA:373,2
DA:375,3
DA:376,3
DA:377,3
DA:378,3
DA:379,3
DA:383,3
DA:386,5
DA:389,8
DA:393,3
DA:394,3
DA:398,2
DA:399,2
DA:402,2
DA:403,2
DA:404,2
DA:405,2
DA:406,2
DA:407,2
DA:408,2
DA:409,1
DA:410,1
DA:411,1
DA:413,1
DA:414,2
DA:415,3
DA:417,1
DA:419,1
DA:421,2
DA:423,2
DA:424,2
DA:425,2
DA:426,1
DA:427,1
DA:428,2
DA:437,17
DA:438,17
DA:439,17
DA:440,17
DA:441,17
DA:442,17
DA:443,17
DA:444,17
DA:446,39
DA:447,39
DA:448,39
DA:449,51
DA:450,51
DA:452,39
DA:453,39
DA:455,4
DA:456,4
DA:457,8
DA:458,8
DA:459,8
DA:460,4
DA:461,4
DA:464,1
DA:465,1
DA:466,1
DA:467,1
DA:468,1
DA:470,1
DA:471,1
DA:474,1
DA:475,1
DA:476,1
DA:477,1
DA:478,1
DA:480,1
DA:481,1
DA:484,1
DA:485,1
DA:486,1
DA:487,1
DA:490,1
DA:491,1
DA:492,1
DA:493,1
DA:494,1
DA:495,1
DA:496,1
DA:497,1
DA:498,1
DA:501,1
DA:502,1
DA:503,1
DA:504,1
DA:505,1
DA:506,1
DA:507,1
DA:508,1
DA:511,1
DA:512,1
DA:513,1
DA:514,1
DA:515,1
DA:516,1
DA:517,1
DA:518,1
DA:521,1
DA:522,1
DA:523,1
DA:524,1
DA:525,1
DA:526,1
DA:527,1
DA:528,1
DA:529,1
DA:530,1
DA:531,1
DA:532,1
DA:533,1
DA:536,1
DA:537,1
DA:538,1
DA:539,1
DA:540,1
DA:541,1
DA:542,1
DA:544,1
DA:545,1
DA:546,1
DA:547,1
DA:548,1
DA:549,1
DA:550,1
DA:551,1
DA:554,1
DA:555,1
DA:556,1
DA:557,1
DA:558,1
DA:559,1
DA:560,1
DA:561,1
DA:562,1
DA:563,1
DA:564,1
DA:565,1
DA:566,1
DA:569,1
DA:570,1
DA:572,1
DA:573,1
DA:574,1
DA:576,1
DA:577,1
DA:578,1
DA:579,1
DA:580,1
DA:583,1
DA:584,1
DA:585,1
DA:586,1
DA:587,1
DA:588,1
DA:589,1
DA:590,1
DA:593,1
DA:594,1
DA:596,1
DA:597,1
DA:598,1
DA:600,1
DA:601,1
DA:602,1
DA:603,1
DA:606,1
DA:607,1
DA:608,1
DA:609,1
DA:610,1
DA:611,1
DA:612,1
DA:614,1
DA:615,1
DA:616,1
DA:617,1
DA:620,1
DA:621,1
DA:624,1
DA:625,1
DA:626,1
DA:628,1
DA:629,1
DA:630,1
DA:631,1
DA:634,1
DA:635,1
DA:636,1
DA:637,1
DA:638,1
DA:639,1
DA:640,1
DA:641,1
DA:642,1
DA:643,1
DA:644,1
DA:647,1
DA:648,1
DA:649,1
DA:650,1
DA:651,1
DA:653,1
DA:654,1
DA:656,1
DA:657,1
DA:658,1
DA:659,1
DA:660,1
DA:663,1
DA:664,1
DA:665,1
DA:666,1
DA:667,1
DA:668,1
DA:671,1
DA:672,1
DA:673,1
DA:674,1
DA:675,1
DA:676,1
DA:679,1
DA:680,1
DA:681,1
DA:682,1
DA:683,1
DA:684,1
DA:685,1
DA:686,1
DA:687,1
DA:688,1
DA:689,1
DA:690,1
DA:691,1
DA:692,1
DA:693,1
DA:696,1
DA:697,1
DA:698,1
DA:699,1
DA:700,1
DA:701,1
DA:702,1
DA:703,1
DA:704,1
DA:705,1
DA:706,1
DA:707,1
DA:709,1
DA:712,1
DA:713,1
DA:714,1
DA:715,1
DA:716,1
DA:717,1
DA:718,1
DA:719,1
DA:720,1
DA:721,1
DA:722,1
DA:725,1
DA:726,1
DA:727,1
DA:728,1
DA:729,1
DA:730,1
DA:731,1
DA:732,1
DA:733,1
DA:734,1
DA:735,1
DA:738,1
DA:739,1
DA:740,1
DA:741,1
DA:742,1
DA:743,1
DA:744,1
DA:745,1
DA:746,1
DA:747,1
DA:748,1
DA:751,1
DA:752,1
DA:753,1
DA:754,1
DA:755,1
DA:756,1
DA:757,1
DA:758,1
DA:759,1
DA:760,1
DA:761,1
DA:762,1
DA:763,1
DA:766,1
DA:767,1
DA:768,1
DA:769,1
DA:770,1
DA:771,1
DA:772,1
DA:773,1
DA:774,1
DA:775,1
DA:776,1
DA:777,1
DA:778,1
DA:779,1
DA:782,1
DA:783,1
DA:784,1
DA:785,1
DA:786,1
DA:787,1
DA:788,1
DA:789,1
DA:790,1
DA:791,1
DA:792,1
DA:795,1
DA:796,1
DA:797,1
DA:798,1
DA:799,1
DA:800,1
DA:801,1
DA:802,1
DA:805,1
DA:806,1
DA:807,1
DA:808,1
DA:810,1
DA:811,1
DA:812,1
DA:813,1
DA:814,1
DA:815,1
DA:816,1
DA:819,1
DA:820,1
DA:821,1
DA:822,1
DA:823,1
DA:824,1
DA:825,1
DA:826,1
DA:829,1
DA:830,1
DA:831,1
DA:832,1
DA:833,1
DA:834,1
DA:835,1
DA:836,1
DA:838,1
DA:839,1
DA:840,1
DA:841,1
DA:842,1
DA:843,1
DA:844,1
BRF:0
BRH:0
LF:649
LH:643
end_of_record
SF:/mnt/d/Projects/measurekit/measurekit_core/src/lib.rs
FN:22,_RNvCsiHEayBwtz3f_15measurekit_core15measurekit_core
FNDA:0,_RNvCsiHEayBwtz3f_15measurekit_core15measurekit_core
FNF:1
FNH:0
DA:22,0
DA:23,0
DA:24,0
DA:25,0
DA:26,0
DA:27,0
DA:28,0
DA:29,0
DA:30,0
DA:31,0
DA:32,0
BRF:0
BRH:0
LF:11
LH:0
end_of_record
SF:/mnt/d/Projects/measurekit/measurekit_core/src/math.rs
FN:8,_RNvXNtCsiHEayBwtz3f_15measurekit_core4mathINtNtCsb1EOeunfYlg_4sprs6sparse9CsMatBasedjINtNtCsgW8esjfipvk_5alloc3vec3VecjEB1l_IB1m_dEENtB2_15SandwichProduct16sandwich_product
FN:25,_RNvNtNtCsiHEayBwtz3f_15measurekit_core4math5testss_29test_sparse_sandwich_identity
FN:15,_RNvNtCsiHEayBwtz3f_15measurekit_core4math15sparse_sandwich
FNDA:7,_RNvXNtCsiHEayBwtz3f_15measurekit_core4mathINtNtCsb1EOeunfYlg_4sprs6sparse9CsMatBasedjINtNtCsgW8esjfipvk_5alloc3vec3VecjEB1l_IB1m_dEENtB2_15SandwichProduct16sandwich_product
FNDA:1,_RNvNtNtCsiHEayBwtz3f_15measurekit_core4math5testss_29test_sparse_sandwich_identity
FNDA:7,_RNvNtCsiHEayBwtz3f_15measurekit_core4math15sparse_sandwich
FNF:3
FNH:3
DA:8,7
DA:10,7
DA:11,7
DA:12,7
DA:15,7
DA:16,7
DA:17,7
DA:25,1
DA:27,1
DA:28,1
DA:29,3
DA:30,3
DA:31,3
DA:32,1
DA:35,1
DA:38,3
DA:39,3
DA:41,1
BRF:0
BRH:0
LF:18
LH:18
end_of_record
SF:/mnt/d/Projects/measurekit/measurekit_core/src/quantity.rs
FN:39,_RNvMs_NtCsiHEayBwtz3f_15measurekit_core8quantityNtB4_8Quantity11__to_backend
FN:70,_RNvMs_NtCsiHEayBwtz3f_15measurekit_core8quantityNtB4_8Quantity12apply_kwargs
FN:115,_RNvMs_NtCsiHEayBwtz3f_15measurekit_core8quantityNtB4_8Quantity13build_backend
FN:51,_RNvMs_NtCsiHEayBwtz3f_15measurekit_core8quantityNtB4_8Quantity16try_extract_core
FN:92,_RNvMs_NtCsiHEayBwtz3f_15measurekit_core8quantityNtB4_8Quantity19parse_quantity_args
FN:31,_RNvMs_NtCsiHEayBwtz3f_15measurekit_core8quantityNtB4_8Quantity23__extract_value_and_unit
FN:155,_RNvMsb_NtCsiHEayBwtz3f_15measurekit_core8quantityNtB5_8Quantity10___reduce__
FN:232,_RNvMsb_NtCsiHEayBwtz3f_15measurekit_core8quantityNtB5_8Quantity11___truediv__
FN:175,_RNvMsb_NtCsiHEayBwtz3f_15measurekit_core8quantityNtB5_8Quantity11uncertainty
FN:241,_RNvMsb_NtCsiHEayBwtz3f_15measurekit_core8quantityNtB5_8Quantity12___rtruediv__
FN:178,_RNvMsb_NtCsiHEayBwtz3f_15measurekit_core8quantityNtB5_8Quantity17uncertainty_model
FN:144,_RNvMsb_NtCsiHEayBwtz3f_15measurekit_core8quantityNtB5_8Quantity3new
FN:166,_RNvMsb_NtCsiHEayBwtz3f_15measurekit_core8quantityNtB5_8Quantity4mean
FN:181,_RNvMsb_NtCsiHEayBwtz3f_15measurekit_core8quantityNtB5_8Quantity4unit
FN:265,_RNvMsb_NtCsiHEayBwtz3f_15measurekit_core8quantityNtB5_8Quantity7___abs__
FN:188,_RNvMsb_NtCsiHEayBwtz3f_15measurekit_core8quantityNtB5_8Quantity7___add__
FN:219,_RNvMsb_NtCsiHEayBwtz3f_15measurekit_core8quantityNtB5_8Quantity7___mul__
FN:260,_RNvMsb_NtCsiHEayBwtz3f_15measurekit_core8quantityNtB5_8Quantity7___neg__
FN:250,_RNvMsb_NtCsiHEayBwtz3f_15measurekit_core8quantityNtB5_8Quantity7___pow__
FN:201,_RNvMsb_NtCsiHEayBwtz3f_15measurekit_core8quantityNtB5_8Quantity7___sub__
FN:172,_RNvMsb_NtCsiHEayBwtz3f_15measurekit_core8quantityNtB5_8Quantity7std_dev
FN:197,_RNvMsb_NtCsiHEayBwtz3f_15measurekit_core8quantityNtB5_8Quantity8___radd__
FN:269,_RNvMsb_NtCsiHEayBwtz3f_15measurekit_core8quantityNtB5_8Quantity8___repr__
FN:228,_RNvMsb_NtCsiHEayBwtz3f_15measurekit_core8quantityNtB5_8Quantity8___rmul__
FN:210,_RNvMsb_NtCsiHEayBwtz3f_15measurekit_core8quantityNtB5_8Quantity8___rsub__
FN:186,_RNvMsb_NtCsiHEayBwtz3f_15measurekit_core8quantityNtB5_8Quantity9core_unit
FN:169,_RNvMsb_NtCsiHEayBwtz3f_15measurekit_core8quantityNtB5_8Quantity9magnitude
FN:140,_RNvMsv_NtCsiHEayBwtz3f_15measurekit_core8quantityNtB5_8Quantity20___pymethod___abs____
FN:140,_RNvMsv_NtCsiHEayBwtz3f_15measurekit_core8quantityNtB5_8Quantity20___pymethod___neg____
FN:140,_RNvMsv_NtCsiHEayBwtz3f_15measurekit_core8quantityNtB5_8Quantity21___pymethod___repr____
FN:140,_RNvMsv_NtCsiHEayBwtz3f_15measurekit_core8quantityNtB5_8Quantity21___pymethod_get_mean__
FN:140,_RNvMsv_NtCsiHEayBwtz3f_15measurekit_core8quantityNtB5_8Quantity21___pymethod_get_unit__
FN:140,_RNvMsv_NtCsiHEayBwtz3f_15measurekit_core8quantityNtB5_8Quantity23___pymethod___reduce____
FN:140,_RNvMsv_NtCsiHEayBwtz3f_15measurekit_core8quantityNtB5_8Quantity24___pymethod_get_std_dev__
FN:140,_RNvMsv_NtCsiHEayBwtz3f_15measurekit_core8quantityNtB5_8Quantity26___pymethod_get_core_unit__
FN:140,_RNvMsv_NtCsiHEayBwtz3f_15measurekit_core8quantityNtB5_8Quantity26___pymethod_get_magnitude__
FN:140,_RNvMsv_NtCsiHEayBwtz3f_15measurekit_core8quantityNtB5_8Quantity28___pymethod_get_uncertainty__
FN:140,_RNvMsv_NtCsiHEayBwtz3f_15measurekit_core8quantityNtB5_8Quantity34___pymethod_get_uncertainty_model__
FN:21,_RNvXNtCsiHEayBwtz3f_15measurekit_core8quantityNtB2_8QuantityNtNtCs27Vx93FoQ6z_4core5clone5Clone5clone
FN:78,_RNCNvMs_NtCsiHEayBwtz3f_15measurekit_core8quantityNtB6_8Quantity12apply_kwargs0B8_
FN:81,_RNCNvMs_NtCsiHEayBwtz3f_15measurekit_core8quantityNtB6_8Quantity12apply_kwargss_0B8_
FN:161,_RNCNvMsb_NtCsiHEayBwtz3f_15measurekit_core8quantityNtB7_8Quantity10___reduce__0B9_
FN:149,_RNCNvMsb_NtCsiHEayBwtz3f_15measurekit_core8quantityNtB7_8Quantity3new0B9_
FNDA:0,_RNvMs_NtCsiHEayBwtz3f_15measurekit_core8quantityNtB4_8Quantity11__to_backend
FNDA:0,_RNvMs_NtCsiHEayBwtz3f_15measurekit_core8quantityNtB4_8Quantity12apply_kwargs
FNDA:0,_RNvMs_NtCsiHEayBwtz3f_15measurekit_core8quantityNtB4_8Quantity13build_backend
FNDA:0,_RNvMs_NtCsiHEayBwtz3f_15measurekit_core8quantityNtB4_8Quantity16try_extract_core
FNDA:0,_RNvMs_NtCsiHEayBwtz3f_15measurekit_core8quantityNtB4_8Quantity19parse_quantity_args
FNDA:0,_RNvMs_NtCsiHEayBwtz3f_15measurekit_core8quantityNtB4_8Quantity23__extract_value_and_unit
FNDA:0,_RNvMsb_NtCsiHEayBwtz3f_15measurekit_core8quantityNtB5_8Quantity10___reduce__
FNDA:0,_RNvMsb_NtCsiHEayBwtz3f_15measurekit_core8quantityNtB5_8Quantity11___truediv__
FNDA:0,_RNvMsb_NtCsiHEayBwtz3f_15measurekit_core8quantityNtB5_8Quantity11uncertainty
FNDA:0,_RNvMsb_NtCsiHEayBwtz3f_15measurekit_core8quantityNtB5_8Quantity12___rtruediv__
FNDA:0,_RNvMsb_NtCsiHEayBwtz3f_15measurekit_core8quantityNtB5_8Quantity17uncertainty_model
FNDA:0,_RNvMsb_NtCsiHEayBwtz3f_15measurekit_core8quantityNtB5_8Quantity3new
FNDA:0,_RNvMsb_NtCsiHEayBwtz3f_15measurekit_core8quantityNtB5_8Quantity4mean
FNDA:0,_RNvMsb_NtCsiHEayBwtz3f_15measurekit_core8quantityNtB5_8Quantity4unit
FNDA:0,_RNvMsb_NtCsiHEayBwtz3f_15measurekit_core8quantityNtB5_8Quantity7___abs__
FNDA:0,_RNvMsb_NtCsiHEayBwtz3f_15measurekit_core8quantityNtB5_8Quantity7___add__
FNDA:0,_RNvMsb_NtCsiHEayBwtz3f_15measurekit_core8quantityNtB5_8Quantity7___mul__
FNDA:0,_RNvMsb_NtCsiHEayBwtz3f_15measurekit_core8quantityNtB5_8Quantity7___neg__
FNDA:0,_RNvMsb_NtCsiHEayBwtz3f_15measurekit_core8quantityNtB5_8Quantity7___pow__
FNDA:0,_RNvMsb_NtCsiHEayBwtz3f_15measurekit_core8quantityNtB5_8Quantity7___sub__
FNDA:0,_RNvMsb_NtCsiHEayBwtz3f_15measurekit_core8quantityNtB5_8Quantity7std_dev
FNDA:0,_RNvMsb_NtCsiHEayBwtz3f_15measurekit_core8quantityNtB5_8Quantity8___radd__
FNDA:0,_RNvMsb_NtCsiHEayBwtz3f_15measurekit_core8quantityNtB5_8Quantity8___repr__
FNDA:0,_RNvMsb_NtCsiHEayBwtz3f_15measurekit_core8quantityNtB5_8Quantity8___rmul__
FNDA:0,_RNvMsb_NtCsiHEayBwtz3f_15measurekit_core8quantityNtB5_8Quantity8___rsub__
FNDA:0,_RNvMsb_NtCsiHEayBwtz3f_15measurekit_core8quantityNtB5_8Quantity9core_unit
FNDA:0,_RNvMsb_NtCsiHEayBwtz3f_15measurekit_core8quantityNtB5_8Quantity9magnitude
FNDA:0,_RNvMsv_NtCsiHEayBwtz3f_15measurekit_core8quantityNtB5_8Quantity20___pymethod___abs____
FNDA:0,_RNvMsv_NtCsiHEayBwtz3f_15measurekit_core8quantityNtB5_8Quantity20___pymethod___neg____
FNDA:0,_RNvMsv_NtCsiHEayBwtz3f_15measurekit_core8quantityNtB5_8Quantity21___pymethod___repr____
FNDA:0,_RNvMsv_NtCsiHEayBwtz3f_15measurekit_core8quantityNtB5_8Quantity21___pymethod_get_mean__
FNDA:0,_RNvMsv_NtCsiHEayBwtz3f_15measurekit_core8quantityNtB5_8Quantity21___pymethod_get_unit__
FNDA:0,_RNvMsv_NtCsiHEayBwtz3f_15measurekit_core8quantityNtB5_8Quantity23___pymethod___reduce____
FNDA:0,_RNvMsv_NtCsiHEayBwtz3f_15measurekit_core8quantityNtB5_8Quantity24___pymethod_get_std_dev__
FNDA:0,_RNvMsv_NtCsiHEayBwtz3f_15measurekit_core8quantityNtB5_8Quantity26___pymethod_get_core_unit__
FNDA:0,_RNvMsv_NtCsiHEayBwtz3f_15measurekit_core8quantityNtB5_8Quantity26___pymethod_get_magnitude__
FNDA:0,_RNvMsv_NtCsiHEayBwtz3f_15measurekit_core8quantityNtB5_8Quantity28___pymethod_get_uncertainty__
FNDA:0,_RNvMsv_NtCsiHEayBwtz3f_15measurekit_core8quantityNtB5_8Quantity34___pymethod_get_uncertainty_model__
FNDA:0,_RNvXNtCsiHEayBwtz3f_15measurekit_core8quantityNtB2_8QuantityNtNtCs27Vx93FoQ6z_4core5clone5Clone5clone
FNDA:0,_RNCNvMs_NtCsiHEayBwtz3f_15measurekit_core8quantityNtB6_8Quantity12apply_kwargs0B8_
FNDA:0,_RNCNvMs_NtCsiHEayBwtz3f_15measurekit_core8quantityNtB6_8Quantity12apply_kwargss_0B8_
FNDA:0,_RNCNvMsb_NtCsiHEayBwtz3f_15measurekit_core8quantityNtB7_8Quantity10___reduce__0B9_
FNDA:0,_RNCNvMsb_NtCsiHEayBwtz3f_15measurekit_core8quantityNtB7_8Quantity3new0B9_
FNF:33
FNH:0
DA:21,0
DA:22,0
DA:23,0
DA:24,0
DA:25,0
DA:26,0
DA:31,0
DA:32,0
DA:33,0
DA:35,0
DA:37,0
DA:39,0
DA:40,0
DA:41,0
DA:42,0
DA:43,0
DA:46,0
DA:47,0
DA:49,0
DA:51,0
DA:52,0
DA:53,0
DA:54,0
DA:55,0
DA:56,0
DA:57,0
DA:58,0
DA:59,0
DA:60,0
DA:61,0
DA:62,0
DA:63,0
DA:64,0
DA:65,0
DA:66,0
DA:67,0
DA:68,0
DA:70,0
DA:71,0
DA:72,0
DA:73,0
DA:74,0
DA:75,0
DA:76,0
DA:77,0
DA:78,0
DA:79,0
DA:80,0
DA:81,0
DA:82,0
DA:83,0
DA:84,0
DA:85,0
DA:86,0
DA:87,0
DA:88,0
DA:89,0
DA:90,0
DA:92,0
DA:93,0
DA:94,0
DA:95,0
DA:96,0
DA:97,0
DA:98,0
DA:99,0
DA:100,0
DA:102,0
DA:103,0
DA:104,0
DA:105,0
DA:106,0
DA:108,0
DA:109,0
DA:110,0
DA:112,0
DA:113,0
DA:115,0
DA:116,0
DA:117,0
DA:118,0
DA:119,0
DA:120,0
DA:121,0
DA:122,0
DA:123,0
DA:125,0
DA:126,0
DA:127,0
DA:128,0
DA:129,0
DA:130,0
DA:131,0
DA:133,0
DA:134,0
DA:136,0
DA:137,0

DA:144,0
DA:145,0
DA:146,0
DA:147,0
DA:148,0
DA:149,0
DA:150,0
DA:151,0
DA:152,0
DA:153,0
DA:155,0
DA:156,0
DA:157,0
DA:158,0
DA:159,0
DA:160,0
DA:161,0
DA:162,0
DA:163,0
DA:166,0
DA:169,0
DA:172,0
DA:175,0
DA:178,0
DA:181,0
DA:182,0
DA:183,0
DA:186,0
DA:188,0
DA:189,0
DA:190,0
DA:191,0
DA:192,0
DA:193,0
DA:194,0
DA:195,0
DA:197,0
DA:198,0
DA:199,0
DA:201,0
DA:202,0
DA:203,0
DA:204,0
DA:205,0
DA:206,0
DA:207,0
DA:208,0
DA:210,0
DA:211,0
DA:212,0
DA:213,0
DA:214,0
DA:215,0
DA:216,0
DA:217,0
DA:219,0
DA:220,0
DA:221,0
DA:223,0
DA:224,0
DA:226,0
DA:228,0
DA:229,0
DA:230,0
DA:232,0
DA:233,0
DA:234,0
DA:236,0
DA:237,0
DA:239,0
DA:241,0
DA:242,0
DA:243,0
DA:245,0
DA:246,0
DA:248,0
DA:250,0
DA:251,0
DA:252,0
DA:253,0
DA:255,0
DA:256,0
DA:258,0
DA:260,0
DA:261,0
DA:262,0
DA:263,0
DA:265,0
DA:266,0
DA:267,0
DA:269,0
DA:270,0
DA:271,0
DA:272,0
DA:273,0
BRF:0
BRH:0
LF:197
LH:0
end_of_record
SF:/mnt/d/Projects/measurekit/measurekit_core/src/serialization.rs
FN:42,_RNCNvNtCsiHEayBwtz3f_15measurekit_core13serialization21to_arrow_record_batch0B5_
FN:74,_RNCNvNtCsiHEayBwtz3f_15measurekit_core13serialization21to_arrow_record_batchs0_0B5_
FN:59,_RNCNvNtCsiHEayBwtz3f_15measurekit_core13serialization21to_arrow_record_batchs_0B5_
FN:14,_RNvNtCsiHEayBwtz3f_15measurekit_core13serialization21to_arrow_record_batch
FNDA:0,_RNCNvNtCsiHEayBwtz3f_15measurekit_core13serialization21to_arrow_record_batch0B5_
FNDA:0,_RNCNvNtCsiHEayBwtz3f_15measurekit_core13serialization21to_arrow_record_batchs0_0B5_
FNDA:0,_RNCNvNtCsiHEayBwtz3f_15measurekit_core13serialization21to_arrow_record_batchs_0B5_
FNDA:0,_RNvNtCsiHEayBwtz3f_15measurekit_core13serialization21to_arrow_record_batch
FNF:4
FNH:0
DA:14,0
DA:15,0
DA:16,0
DA:17,0
DA:20,0
DA:21,0
DA:22,0
DA:24,0
DA:25,0
DA:27,0
DA:28,0
DA:32,0
DA:33,0
DA:35,0
DA:36,0
DA:38,0
DA:39,0
DA:42,0
DA:43,0
DA:44,0
DA:45,0
DA:46,0
DA:47,0
DA:50,0
DA:51,0
DA:54,0
DA:55,0
DA:56,0
DA:57,0
DA:58,0
DA:59,0
DA:61,0
DA:62,0
DA:63,0
DA:64,0
DA:67,0
DA:68,0
DA:69,0
DA:70,0
DA:71,0
DA:72,0
DA:74,0
DA:76,0
DA:77,0
DA:78,0
DA:79,0
DA:80,0
DA:81,0
DA:82,0
DA:83,0
BRF:0
BRH:0
LF:53
LH:0
end_of_record
SF:/mnt/d/Projects/measurekit/measurekit_core/src/symbolic.rs
FN:815,_RNvNtNtCsiHEayBwtz3f_15measurekit_core8symbolic5tests1n
FN:811,_RNvNtNtCsiHEayBwtz3f_15measurekit_core8symbolic5tests1x
FN:819,_RNvNtNtCsiHEayBwtz3f_15measurekit_core8symbolic5tests5meter
FN:823,_RNvNtNtCsiHEayBwtz3f_15measurekit_core8symbolic5tests6second
FN:904,_RNvNtNtCsiHEayBwtz3f_15measurekit_core8symbolic5testss_15diff_power_rule
FN:893,_RNvNtNtCsiHEayBwtz3f_15measurekit_core8symbolic5testss_15diff_var_is_one
FN:847,_RNvNtNtCsiHEayBwtz3f_15measurekit_core8symbolic5testss_15pow_zero_is_one
FN:881,_RNvNtNtCsiHEayBwtz3f_15measurekit_core8symbolic5testss_16constant_folding
FN:837,_RNvNtNtCsiHEayBwtz3f_15measurekit_core8symbolic5testss_16identity_mul_one
FN:868,_RNvNtNtCsiHEayBwtz3f_15measurekit_core8symbolic5testss_16inverse_div_self
FN:863,_RNvNtNtCsiHEayBwtz3f_15measurekit_core8symbolic5testss_16inverse_sub_self
FN:855,_RNvNtNtCsiHEayBwtz3f_15measurekit_core8symbolic5testss_16one_pow_x_is_one
FN:921,_RNvNtNtCsiHEayBwtz3f_15measurekit_core8symbolic5testss_17diff_product_rule
FN:832,_RNvNtNtCsiHEayBwtz3f_15measurekit_core8symbolic5testss_17identity_add_zero
FN:1032,_RNvNtNtCsiHEayBwtz3f_15measurekit_core8symbolic5testss_17mul_units_compose
FN:967,_RNvNtNtCsiHEayBwtz3f_15measurekit_core8symbolic5testss_18integrate_constant
FN:945,_RNvNtNtCsiHEayBwtz3f_15measurekit_core8symbolic5testss_20integrate_cos_is_sin
FN:932,_RNvNtNtCsiHEayBwtz3f_15measurekit_core8symbolic5testss_20integrate_power_rule
FN:1016,_RNvNtNtCsiHEayBwtz3f_15measurekit_core8symbolic5testss_21add_matching_units_ok
FN:888,_RNvNtNtCsiHEayBwtz3f_15measurekit_core8symbolic5testss_21diff_constant_is_zero
FN:955,_RNvNtNtCsiHEayBwtz3f_15measurekit_core8symbolic5testss_24integrate_sin_is_neg_cos
FN:988,_RNvNtNtCsiHEayBwtz3f_15measurekit_core8symbolic5testss_24integrate_u_substitution
FN:898,_RNvNtNtCsiHEayBwtz3f_15measurekit_core8symbolic5testss_25diff_other_symbol_is_zero
FN:998,_RNvNtNtCsiHEayBwtz3f_15measurekit_core8symbolic5testss_26integrate_reciprocal_is_ln
FN:1024,_RNvNtNtCsiHEayBwtz3f_15measurekit_core8symbolic5testss_27add_mismatched_units_errors
FN:976,_RNvNtNtCsiHEayBwtz3f_15measurekit_core8symbolic5testss_27integrate_linear_chain_rule
FN:873,_RNvNtNtCsiHEayBwtz3f_15measurekit_core8symbolic5testss_32collect_equal_factors_into_power
FN:1041,_RNvNtNtCsiHEayBwtz3f_15measurekit_core8symbolic5testss_37diff_propagates_unit_via_product_rule
FN:1006,_RNvNtNtCsiHEayBwtz3f_15measurekit_core8symbolic5testss_37integrate_non_matching_pattern_errors
FN:1052,_RNvNtNtCsiHEayBwtz3f_15measurekit_core8symbolic5testss_40transcendental_of_dimensioned_arg_errors
FN:915,_RNvNtNtCsiHEayBwtz3f_15measurekit_core8symbolic5testss_8diff_sin
FN:842,_RNvNtNtCsiHEayBwtz3f_15measurekit_core8symbolic5testss_8zero_mul
FN:169,_RNCNvMNtCsiHEayBwtz3f_15measurekit_core8symbolicNtB4_4Node10depends_on0B6_
FN:185,_RNCNvMNtCsiHEayBwtz3f_15measurekit_core8symbolicNtB4_4Node12linear_coeff0B6_
FN:242,_RNCNvMNtCsiHEayBwtz3f_15measurekit_core8symbolicNtB4_4Node14integrate_node0B6_
FN:113,_RNCNvMNtCsiHEayBwtz3f_15measurekit_core8symbolicNtB4_4Node9diff_node0B6_
FN:320,_RNCNvNtCsiHEayBwtz3f_15measurekit_core8symbolic12simplify_add0B5_
FN:328,_RNCNvNtCsiHEayBwtz3f_15measurekit_core8symbolic12simplify_adds_0B5_
FN:375,_RNCNvNtCsiHEayBwtz3f_15measurekit_core8symbolic12simplify_mul0B5_
FN:383,_RNCNvNtCsiHEayBwtz3f_15measurekit_core8symbolic12simplify_muls_0B5_
FN:600,_RNCNvNtCsiHEayBwtz3f_15measurekit_core8symbolic13integrate_mul0B5_
FN:601,_RNCNvNtCsiHEayBwtz3f_15measurekit_core8symbolic13integrate_muls_0B5_
FN:590,_RNCNvNtCsiHEayBwtz3f_15measurekit_core8symbolic18try_u_substitution0B5_
FN:592,_RNCNvNtCsiHEayBwtz3f_15measurekit_core8symbolic18try_u_substitutions_0B5_
FN:164,_RNvMNtCsiHEayBwtz3f_15measurekit_core8symbolicNtB2_4Node10depends_on
FN:30,_RNvMNtCsiHEayBwtz3f_15measurekit_core8symbolicNtB2_4Node10infer_unit
FN:179,_RNvMNtCsiHEayBwtz3f_15measurekit_core8symbolicNtB2_4Node12linear_coeff
FN:219,_RNvMNtCsiHEayBwtz3f_15measurekit_core8symbolicNtB2_4Node14integrate_node
FN:261,_RNvMNtCsiHEayBwtz3f_15measurekit_core8symbolicNtB2_4Node8simplify
FN:105,_RNvMNtCsiHEayBwtz3f_15measurekit_core8symbolicNtB2_4Node9diff_node
FN:747,_RNvMse_NtCsiHEayBwtz3f_15measurekit_core8symbolicNtB5_4Expr11___truediv__
FN:714,_RNvMse_NtCsiHEayBwtz3f_15measurekit_core8symbolicNtB5_4Expr2ln
FN:707,_RNvMse_NtCsiHEayBwtz3f_15measurekit_core8symbolicNtB5_4Expr3cos
FN:721,_RNvMse_NtCsiHEayBwtz3f_15measurekit_core8symbolicNtB5_4Expr3exp
FN:700,_RNvMse_NtCsiHEayBwtz3f_15measurekit_core8symbolicNtB5_4Expr3sin
FN:766,_RNvMse_NtCsiHEayBwtz3f_15measurekit_core8symbolicNtB5_4Expr4diff
FN:785,_RNvMse_NtCsiHEayBwtz3f_15measurekit_core8symbolicNtB5_4Expr4unit
FN:796,_RNvMse_NtCsiHEayBwtz3f_15measurekit_core8symbolicNtB5_4Expr6___eq__
FN:679,_RNvMse_NtCsiHEayBwtz3f_15measurekit_core8symbolicNtB5_4Expr6number
FN:686,_RNvMse_NtCsiHEayBwtz3f_15measurekit_core8symbolicNtB5_4Expr6symbol
FN:727,_RNvMse_NtCsiHEayBwtz3f_15measurekit_core8symbolicNtB5_4Expr7___add__
FN:741,_RNvMse_NtCsiHEayBwtz3f_15measurekit_core8symbolicNtB5_4Expr7___mul__
FN:753,_RNvMse_NtCsiHEayBwtz3f_15measurekit_core8symbolicNtB5_4Expr7___pow__
FN:734,_RNvMse_NtCsiHEayBwtz3f_15measurekit_core8symbolicNtB5_4Expr7___sub__
FN:800,_RNvMse_NtCsiHEayBwtz3f_15measurekit_core8symbolicNtB5_4Expr8___hash__
FN:792,_RNvMse_NtCsiHEayBwtz3f_15measurekit_core8symbolicNtB5_4Expr8___repr__
FN:693,_RNvMse_NtCsiHEayBwtz3f_15measurekit_core8symbolicNtB5_4Expr8quantity
FN:759,_RNvMse_NtCsiHEayBwtz3f_15measurekit_core8symbolicNtB5_4Expr8simplify
FN:779,_RNvMse_NtCsiHEayBwtz3f_15measurekit_core8symbolicNtB5_4Expr9integrate
FN:676,_RNvMss_NtCsiHEayBwtz3f_15measurekit_core8symbolicNtB5_4Expr17___pymethod_unit__
FN:676,_RNvMss_NtCsiHEayBwtz3f_15measurekit_core8symbolicNtB5_4Expr21___pymethod___hash____
FN:676,_RNvMss_NtCsiHEayBwtz3f_15measurekit_core8symbolicNtB5_4Expr21___pymethod___repr____
FN:676,_RNvMss_NtCsiHEayBwtz3f_15measurekit_core8symbolicNtB5_4Expr21___pymethod_simplify__
FN:277,_RNvNtCsiHEayBwtz3f_15measurekit_core8symbolic11flatten_add
FN:289,_RNvNtCsiHEayBwtz3f_15measurekit_core8symbolic11flatten_mul
FN:506,_RNvNtCsiHEayBwtz3f_15measurekit_core8symbolic12integrate_ln
FN:308,_RNvNtCsiHEayBwtz3f_15measurekit_core8symbolic12simplify_add
FN:402,_RNvNtCsiHEayBwtz3f_15measurekit_core8symbolic12simplify_div
FN:360,_RNvNtCsiHEayBwtz3f_15measurekit_core8symbolic12simplify_mul
FN:417,_RNvNtCsiHEayBwtz3f_15measurekit_core8symbolic12simplify_pow
FN:347,_RNvNtCsiHEayBwtz3f_15measurekit_core8symbolic12simplify_sub
FN:479,_RNvNtCsiHEayBwtz3f_15measurekit_core8symbolic13integrate_cos
FN:648,_RNvNtCsiHEayBwtz3f_15measurekit_core8symbolic13integrate_div
FN:494,_RNvNtCsiHEayBwtz3f_15measurekit_core8symbolic13integrate_exp
FN:598,_RNvNtCsiHEayBwtz3f_15measurekit_core8symbolic13integrate_mul
FN:522,_RNvNtCsiHEayBwtz3f_15measurekit_core8symbolic13integrate_pow
FN:464,_RNvNtCsiHEayBwtz3f_15measurekit_core8symbolic13integrate_sin
FN:427,_RNvNtCsiHEayBwtz3f_15measurekit_core8symbolic16check_add_compat
FN:585,_RNvNtCsiHEayBwtz3f_15measurekit_core8symbolic18try_u_substitution
FN:560,_RNvNtCsiHEayBwtz3f_15measurekit_core8symbolic23antiderivative_of_outer
FN:449,_RNvNtCsiHEayBwtz3f_15measurekit_core8symbolic8arg_form
FN:304,_RNvNtCsiHEayBwtz3f_15measurekit_core8symbolic8sort_key
FN:572,_RNvNtCsiHEayBwtz3f_15measurekit_core8symbolic9inner_arg
FNDA:32,_RNvNtNtCsiHEayBwtz3f_15measurekit_core8symbolic5tests1n
FNDA:34,_RNvNtNtCsiHEayBwtz3f_15measurekit_core8symbolic5tests1x
FNDA:8,_RNvNtNtCsiHEayBwtz3f_15measurekit_core8symbolic5tests5meter
FNDA:4,_RNvNtNtCsiHEayBwtz3f_15measurekit_core8symbolic5tests6second
FNDA:1,_RNvNtNtCsiHEayBwtz3f_15measurekit_core8symbolic5testss_15diff_power_rule
FNDA:1,_RNvNtNtCsiHEayBwtz3f_15measurekit_core8symbolic5testss_15diff_var_is_one
FNDA:1,_RNvNtNtCsiHEayBwtz3f_15measurekit_core8symbolic5testss_15pow_zero_is_one
FNDA:1,_RNvNtNtCsiHEayBwtz3f_15measurekit_core8symbolic5testss_16constant_folding
FNDA:1,_RNvNtNtCsiHEayBwtz3f_15measurekit_core8symbolic5testss_16identity_mul_one
FNDA:1,_RNvNtNtCsiHEayBwtz3f_15measurekit_core8symbolic5testss_16inverse_div_self
FNDA:1,_RNvNtNtCsiHEayBwtz3f_15measurekit_core8symbolic5testss_16inverse_sub_self
FNDA:1,_RNvNtNtCsiHEayBwtz3f_15measurekit_core8symbolic5testss_16one_pow_x_is_one
FNDA:1,_RNvNtNtCsiHEayBwtz3f_15measurekit_core8symbolic5testss_17diff_product_rule
FNDA:1,_RNvNtNtCsiHEayBwtz3f_15measurekit_core8symbolic5testss_17identity_add_zero
FNDA:1,_RNvNtNtCsiHEayBwtz3f_15measurekit_core8symbolic5testss_17mul_units_compose
FNDA:1,_RNvNtNtCsiHEayBwtz3f_15measurekit_core8symbolic5testss_18integrate_constant
FNDA:1,_RNvNtNtCsiHEayBwtz3f_15measurekit_core8symbolic5testss_20integrate_cos_is_sin
FNDA:1,_RNvNtNtCsiHEayBwtz3f_15measurekit_core8symbolic5testss_20integrate_power_rule
FNDA:1,_RNvNtNtCsiHEayBwtz3f_15measurekit_core8symbolic5testss_21add_matching_units_ok
FNDA:1,_RNvNtNtCsiHEayBwtz3f_15measurekit_core8symbolic5testss_21diff_constant_is_zero
FNDA:1,_RNvNtNtCsiHEayBwtz3f_15measurekit_core8symbolic5testss_24integrate_sin_is_neg_cos
FNDA:1,_RNvNtNtCsiHEayBwtz3f_15measurekit_core8symbolic5testss_24integrate_u_substitution
FNDA:1,_RNvNtNtCsiHEayBwtz3f_15measurekit_core8symbolic5testss_25diff_other_symbol_is_zero
FNDA:1,_RNvNtNtCsiHEayBwtz3f_15measurekit_core8symbolic5testss_26integrate_reciprocal_is_ln
FNDA:1,_RNvNtNtCsiHEayBwtz3f_15measurekit_core8symbolic5testss_27add_mismatched_units_errors
FNDA:1,_RNvNtNtCsiHEayBwtz3f_15measurekit_core8symbolic5testss_27integrate_linear_chain_rule
FNDA:1,_RNvNtNtCsiHEayBwtz3f_15measurekit_core8symbolic5testss_32collect_equal_factors_into_power
FNDA:1,_RNvNtNtCsiHEayBwtz3f_15measurekit_core8symbolic5testss_37diff_propagates_unit_via_product_rule
FNDA:1,_RNvNtNtCsiHEayBwtz3f_15measurekit_core8symbolic5testss_37integrate_non_matching_pattern_errors
FNDA:1,_RNvNtNtCsiHEayBwtz3f_15measurekit_core8symbolic5testss_40transcendental_of_dimensioned_arg_errors
FNDA:1,_RNvNtNtCsiHEayBwtz3f_15measurekit_core8symbolic5testss_8diff_sin
FNDA:1,_RNvNtNtCsiHEayBwtz3f_15measurekit_core8symbolic5testss_8zero_mul
FNDA:4,_RNCNvMNtCsiHEayBwtz3f_15measurekit_core8symbolicNtB4_4Node10depends_on0B6_
FNDA:0,_RNCNvMNtCsiHEayBwtz3f_15measurekit_core8symbolicNtB4_4Node12linear_coeff0B6_
FNDA:0,_RNCNvMNtCsiHEayBwtz3f_15measurekit_core8symbolicNtB4_4Node14integrate_node0B6_
FNDA:0,_RNCNvMNtCsiHEayBwtz3f_15measurekit_core8symbolicNtB4_4Node9diff_node0B6_
FNDA:0,_RNCNvNtCsiHEayBwtz3f_15measurekit_core8symbolic12simplify_add0B5_
FNDA:3,_RNCNvNtCsiHEayBwtz3f_15measurekit_core8symbolic12simplify_adds_0B5_
FNDA:1,_RNCNvNtCsiHEayBwtz3f_15measurekit_core8symbolic12simplify_mul0B5_
FNDA:14,_RNCNvNtCsiHEayBwtz3f_15measurekit_core8symbolic12simplify_muls_0B5_
FNDA:4,_RNCNvNtCsiHEayBwtz3f_15measurekit_core8symbolic13integrate_mul0B5_
FNDA:2,_RNCNvNtCsiHEayBwtz3f_15measurekit_core8symbolic13integrate_muls_0B5_
FNDA:1,_RNCNvNtCsiHEayBwtz3f_15measurekit_core8symbolic18try_u_substitution0B5_
FNDA:0,_RNCNvNtCsiHEayBwtz3f_15measurekit_core8symbolic18try_u_substitutions_0B5_
FNDA:14,_RNvMNtCsiHEayBwtz3f_15measurekit_core8symbolicNtB2_4Node10depends_on
FNDA:12,_RNvMNtCsiHEayBwtz3f_15measurekit_core8symbolicNtB2_4Node10infer_unit
FNDA:2,_RNvMNtCsiHEayBwtz3f_15measurekit_core8symbolicNtB2_4Node12linear_coeff
FNDA:8,_RNvMNtCsiHEayBwtz3f_15measurekit_core8symbolicNtB2_4Node14integrate_node
FNDA:106,_RNvMNtCsiHEayBwtz3f_15measurekit_core8symbolicNtB2_4Node8simplify
FNDA:15,_RNvMNtCsiHEayBwtz3f_15measurekit_core8symbolicNtB2_4Node9diff_node
FNDA:0,_RNvMse_NtCsiHEayBwtz3f_15measurekit_core8symbolicNtB5_4Expr11___truediv__
FNDA:0,_RNvMse_NtCsiHEayBwtz3f_15measurekit_core8symbolicNtB5_4Expr2ln
FNDA:0,_RNvMse_NtCsiHEayBwtz3f_15measurekit_core8symbolicNtB5_4Expr3cos
FNDA:0,_RNvMse_NtCsiHEayBwtz3f_15measurekit_core8symbolicNtB5_4Expr3exp
FNDA:0,_RNvMse_NtCsiHEayBwtz3f_15measurekit_core8symbolicNtB5_4Expr3sin
FNDA:0,_RNvMse_NtCsiHEayBwtz3f_15measurekit_core8symbolicNtB5_4Expr4diff
FNDA:0,_RNvMse_NtCsiHEayBwtz3f_15measurekit_core8symbolicNtB5_4Expr4unit
FNDA:0,_RNvMse_NtCsiHEayBwtz3f_15measurekit_core8symbolicNtB5_4Expr6___eq__
FNDA:0,_RNvMse_NtCsiHEayBwtz3f_15measurekit_core8symbolicNtB5_4Expr6number
FNDA:0,_RNvMse_NtCsiHEayBwtz3f_15measurekit_core8symbolicNtB5_4Expr6symbol
FNDA:0,_RNvMse_NtCsiHEayBwtz3f_15measurekit_core8symbolicNtB5_4Expr7___add__
FNDA:0,_RNvMse_NtCsiHEayBwtz3f_15measurekit_core8symbolicNtB5_4Expr7___mul__
FNDA:0,_RNvMse_NtCsiHEayBwtz3f_15measurekit_core8symbolicNtB5_4Expr7___pow__
FNDA:0,_RNvMse_NtCsiHEayBwtz3f_15measurekit_core8symbolicNtB5_4Expr7___sub__
FNDA:0,_RNvMse_NtCsiHEayBwtz3f_15measurekit_core8symbolicNtB5_4Expr8___hash__
FNDA:0,_RNvMse_NtCsiHEayBwtz3f_15measurekit_core8symbolicNtB5_4Expr8___repr__
FNDA:0,_RNvMse_NtCsiHEayBwtz3f_15measurekit_core8symbolicNtB5_4Expr8quantity
FNDA:0,_RNvMse_NtCsiHEayBwtz3f_15measurekit_core8symbolicNtB5_4Expr8simplify
FNDA:0,_RNvMse_NtCsiHEayBwtz3f_15measurekit_core8symbolicNtB5_4Expr9integrate
FNDA:0,_RNvMss_NtCsiHEayBwtz3f_15measurekit_core8symbolicNtB5_4Expr17___pymethod_unit__
FNDA:0,_RNvMss_NtCsiHEayBwtz3f_15measurekit_core8symbolicNtB5_4Expr21___pymethod___hash____
FNDA:0,_RNvMss_NtCsiHEayBwtz3f_15measurekit_core8symbolicNtB5_4Expr21___pymethod___repr____
FNDA:0,_RNvMss_NtCsiHEayBwtz3f_15measurekit_core8symbolicNtB5_4Expr21___pymethod_simplify__
FNDA:4,_RNvNtCsiHEayBwtz3f_15measurekit_core8symbolic11flatten_add
FNDA:18,_RNvNtCsiHEayBwtz3f_15measurekit_core8symbolic11flatten_mul
FNDA:0,_RNvNtCsiHEayBwtz3f_15measurekit_core8symbolic12integrate_ln
FNDA:4,_RNvNtCsiHEayBwtz3f_15measurekit_core8symbolic12simplify_add
FNDA:5,_RNvNtCsiHEayBwtz3f_15measurekit_core8symbolic12simplify_div
FNDA:17,_RNvNtCsiHEayBwtz3f_15measurekit_core8symbolic12simplify_mul
FNDA:7,_RNvNtCsiHEayBwtz3f_15measurekit_core8symbolic12simplify_pow
FNDA:1,_RNvNtCsiHEayBwtz3f_15measurekit_core8symbolic12simplify_sub
FNDA:2,_RNvNtCsiHEayBwtz3f_15measurekit_core8symbolic13integrate_cos
FNDA:0,_RNvNtCsiHEayBwtz3f_15measurekit_core8symbolic13integrate_div
FNDA:0,_RNvNtCsiHEayBwtz3f_15measurekit_core8symbolic13integrate_exp
FNDA:2,_RNvNtCsiHEayBwtz3f_15measurekit_core8symbolic13integrate_mul
FNDA:2,_RNvNtCsiHEayBwtz3f_15measurekit_core8symbolic13integrate_pow
FNDA:1,_RNvNtCsiHEayBwtz3f_15measurekit_core8symbolic13integrate_sin
FNDA:0,_RNvNtCsiHEayBwtz3f_15measurekit_core8symbolic16check_add_compat
FNDA:3,_RNvNtCsiHEayBwtz3f_15measurekit_core8symbolic18try_u_substitution
FNDA:1,_RNvNtCsiHEayBwtz3f_15measurekit_core8symbolic23antiderivative_of_outer
FNDA:5,_RNvNtCsiHEayBwtz3f_15measurekit_core8symbolic8arg_form
FNDA:18,_RNvNtCsiHEayBwtz3f_15measurekit_core8symbolic8sort_key
FNDA:3,_RNvNtCsiHEayBwtz3f_15measurekit_core8symbolic9inner_arg
FNF:90
FNH:61
DA:30,12
DA:31,12
DA:32,0
DA:33,8
DA:34,2
DA:35,2
DA:36,4
DA:37,4
DA:38,2
DA:39,2
DA:40,2
DA:41,1
DA:42,1
DA:43,1
DA:44,1
DA:46,1
DA:48,0
DA:50,1
DA:52,0
DA:53,1
DA:54,1
DA:55,2
DA:56,2
DA:57,2
DA:58,1
DA:59,1
DA:61,0
DA:63,1
DA:65,0
DA:66,0
DA:67,0
DA:68,0
DA:69,0
DA:70,0
DA:71,0
DA:72,0
DA:74,0
DA:77,0
DA:78,0
DA:79,0
DA:80,0
DA:81,0
DA:82,0
DA:84,0
DA:85,0
DA:86,0
DA:90,1
DA:91,1
DA:92,1
DA:93,1
DA:94,1
DA:95,1
DA:96,0
DA:97,0
DA:98,0
DA:101,12
DA:105,15
DA:106,15
DA:107,1
DA:108,7
DA:109,2
DA:110,0
DA:111,0
DA:112,0
DA:113,0
DA:114,0
DA:116,0
DA:117,2
DA:118,2
DA:119,4
DA:120,4
DA:121,4
DA:122,4
DA:124,2
DA:126,0
DA:127,0
DA:128,0
DA:129,0
DA:130,0
DA:131,0
DA:132,0
DA:133,0
DA:134,0
DA:136,2
DA:137,2
DA:138,2
DA:139,2
DA:140,2
DA:141,2
DA:142,2
DA:143,2
DA:147,0
DA:148,0
DA:149,0
DA:152,1
DA:153,0
DA:154,0
DA:155,0
DA:156,0
DA:158,0
DA:159,0
DA:161,15
DA:164,14
DA:165,14
DA:166,3
DA:167,6
DA:168,0
DA:169,4
DA:170,1
DA:171,1
DA:173,2
DA:175,14
DA:179,2
DA:180,1
DA:181,0
DA:182,1
DA:183,0
DA:184,0
DA:185,0
DA:186,0
DA:187,0
DA:188,0
DA:189,0
DA:190,0
DA:191,0
DA:192,0
DA:194,1
DA:195,1
DA:196,1
DA:197,2
DA:198,2
DA:199,1
DA:200,0
DA:201,1
DA:202,1
DA:203,1
DA:204,1
DA:205,1
DA:206,0
DA:209,1
DA:210,1
DA:212,0
DA:214,2
DA:219,8
DA:220,0
DA:221,1
DA:222,0
DA:223,0
DA:224,0
DA:225,0
DA:226,0
DA:227,0
DA:228,0
DA:229,0
DA:230,0
DA:231,0
DA:232,0
DA:233,0
DA:234,0
DA:235,0
DA:237,0
DA:239,0
DA:240,0
DA:241,0
DA:242,0
DA:243,0
DA:245,0
DA:246,0
DA:247,0
DA:249,2
DA:250,0
DA:251,2
DA:252,1
DA:253,2
DA:254,0
DA:255,0
DA:257,8
DA:261,106
DA:262,106
DA:263,64
DA:264,4
DA:265,1
DA:266,17
DA:267,5
DA:268,7
DA:269,4
DA:270,3
DA:271,1
DA:272,0
DA:274,106
DA:277,4
DA:278,4
DA:279,8
DA:280,8
DA:281,0
DA:282,8
DA:283,8
DA:284,8
DA:286,4
DA:287,4
DA:289,18
DA:290,18
DA:291,38
DA:292,38
DA:293,1
DA:294,37
DA:295,37
DA:296,37
DA:298,18
DA:299,18
DA:304,18
DA:305,18
DA:306,18
DA:308,4
DA:309,4
DA:310,4
DA:311,4
DA:312,8
DA:313,8
DA:314,5
DA:315,3
DA:318,4
DA:319,4
DA:320,3
DA:321,0
DA:322,3
DA:323,3
DA:324,3
DA:326,4
DA:327,4
DA:328,4
DA:329,3
DA:330,3
DA:332,0
DA:334,3
DA:335,4
DA:336,4
DA:337,1
DA:338,3
DA:339,4
DA:340,4
DA:341,4
DA:343,0
DA:345,4
DA:347,1
DA:348,1
DA:349,1
DA:350,0
DA:351,0
DA:352,0
DA:353,0
DA:354,0
DA:355,0
DA:356,0
DA:357,0
DA:358,1
DA:360,17
DA:361,17
DA:362,17
DA:363,17
DA:364,37
DA:365,37
DA:366,19
DA:367,18
DA:370,17
DA:371,3
DA:372,14
DA:373,14
DA:374,15
DA:375,15
DA:376,1
DA:377,14
DA:378,14
DA:379,14
DA:381,14
DA:382,14
DA:383,14
DA:384,14
DA:385,13
DA:387,1
DA:389,14
DA:390,14
DA:391,14
DA:392,9
DA:393,9
DA:394,14
DA:395,14
DA:396,5
DA:398,9
DA:400,17
DA:402,5
DA:403,5
DA:404,1
DA:405,4
DA:406,4
DA:407,0
DA:408,4
DA:409,4
DA:410,0
DA:411,0
DA:412,0
DA:413,4
DA:414,4
DA:415,5
DA:417,7
DA:418,7
DA:419,0
DA:420,6
DA:421,5
DA:422,1
DA:423,4
DA:425,7
DA:427,0
DA:428,0
DA:429,0
DA:430,0
DA:431,0
DA:432,0
DA:433,0
DA:434,0
DA:435,0
DA:436,0
DA:437,0
DA:438,0
DA:439,0
DA:449,5
DA:450,4
DA:451,0
DA:453,4
DA:454,1
DA:455,1
DA:456,0
DA:457,1
DA:458,1
DA:459,1
DA:460,0
DA:462,5
DA:464,1
DA:465,1
DA:466,1
DA:467,1
DA:468,0
DA:469,0
DA:470,0
DA:471,0
DA:472,0
DA:473,0
DA:474,0
DA:475,0
DA:477,1
DA:479,2
DA:480,2
DA:481,2
DA:482,1
DA:483,1
DA:484,0
DA:485,0
DA:486,0
DA:487,0
DA:488,0
DA:489,0
DA:490,0
DA:492,2
DA:494,0
DA:495,0
DA:496,0
DA:497,0
DA:498,0
DA:499,0
DA:500,0
DA:501,0
DA:502,0
DA:504,0
DA:506,0
DA:507,0
DA:508,0
DA:509,0
DA:510,0
DA:511,0
DA:512,0
DA:513,0
DA:514,0
DA:515,0
DA:516,0
DA:517,0
DA:518,0
DA:520,0
DA:522,2
DA:523,2
DA:524,0
DA:525,0
DA:526,0
DA:528,2
DA:529,2
DA:530,1
DA:531,1
DA:532,1
DA:533,1
DA:534,1
DA:535,1
DA:536,1
DA:537,0
DA:538,0
DA:539,0
DA:540,0
DA:541,0
DA:542,0
DA:543,0
DA:544,0
DA:545,0
DA:546,0
DA:547,0
DA:548,0
DA:549,0
DA:550,0
DA:551,0
DA:552,0
DA:553,0
DA:554,0
DA:556,2
DA:560,1
DA:561,1
DA:562,0
DA:563,0
DA:564,0
DA:565,0
DA:566,1
DA:567,0
DA:568,0
DA:570,1
DA:572,3
DA:573,3
DA:574,1
DA:575,2
DA:577,3
DA:585,3
DA:586,3
DA:587,1
DA:588,1
DA:589,1
DA:590,1
DA:591,0
DA:592,0
DA:594,0
DA:596,3
DA:598,2
DA:599,2
DA:600,4
DA:601,2
DA:602,2
DA:603,2
DA:604,0
DA:605,0
DA:606,0
DA:609,2
DA:610,2
DA:612,2
DA:613,0
DA:614,0
DA:615,0
DA:616,0
DA:618,0
DA:619,0
DA:620,0
DA:622,0
DA:623,0
DA:624,0
DA:629,2
DA:630,3
DA:631,3
DA:632,1
DA:633,1
DA:634,0
DA:635,0
DA:636,2
DA:638,1
DA:639,1
DA:640,1
DA:642,0
DA:643,0
DA:644,0
DA:646,2
DA:648,0
DA:649,0
DA:650,0
DA:651,0
DA:652,0
DA:653,0
DA:654,0
DA:655,0
DA:656,0
DA:657,0
DA:658,0
DA:659,0
DA:660,0
DA:662,0
DA:664,0
DA:665,0
DA:666,0
DA:667,0
DA:668,0

DA:679,0
DA:680,0
DA:681,0
DA:682,0
DA:683,0
DA:686,0
DA:687,0
DA:688,0
DA:689,0
DA:690,0
DA:693,0
DA:694,0
DA:695,0
DA:696,0
DA:697,0
DA:700,0
DA:701,0
DA:702,0
DA:703,0
DA:704,0
DA:707,0
DA:708,0
DA:709,0
DA:710,0
DA:711,0
DA:714,0
DA:715,0
DA:716,0
DA:717,0
DA:718,0
DA:721,0
DA:722,0
DA:723,0
DA:724,0
DA:725,0
DA:727,0
DA:728,0
DA:729,0
DA:730,0
DA:731,0
DA:732,0
DA:734,0
DA:735,0
DA:736,0
DA:737,0
DA:738,0
DA:739,0
DA:741,0
DA:742,0
DA:743,0
DA:744,0
DA:745,0
DA:747,0
DA:748,0
DA:749,0
DA:750,0
DA:751,0
DA:753,0
DA:754,0
DA:755,0
DA:756,0
DA:757,0
DA:759,0
DA:760,0
DA:761,0
DA:762,0
DA:763,0
DA:766,0
DA:767,0
DA:768,0
DA:769,0
DA:771,0
DA:772,0
DA:773,0
DA:774,0
DA:779,0
DA:781,0
DA:783,0
DA:785,0
DA:786,0
DA:787,0
DA:788,0
DA:790,0
DA:792,0
DA:793,0
DA:794,0
DA:796,0
DA:797,0
DA:798,0
DA:800,0
DA:801,0
DA:802,0
DA:803,0
DA:804,0
DA:811,34
DA:812,34
DA:813,34
DA:815,32
DA:816,32
DA:817,32
DA:819,8
DA:820,8
DA:821,8
DA:823,4
DA:824,4
DA:825,4
DA:832,1
DA:833,1
DA:834,1
DA:837,1
DA:838,1
DA:839,1
DA:842,1
DA:843,1
DA:844,1
DA:847,1
DA:848,1
DA:849,1
DA:850,1
DA:852,1
DA:855,1
DA:856,1
DA:857,1
DA:858,1
DA:860,1
DA:863,1
DA:864,1
DA:865,1
DA:868,1
DA:869,1
DA:870,1
DA:873,1
DA:874,1
DA:875,1
DA:876,1
DA:878,1
DA:881,1
DA:882,1
DA:883,1
DA:888,1
DA:889,1
DA:890,1
DA:893,1
DA:894,1
DA:895,1
DA:898,1
DA:899,1
DA:900,1
DA:901,1
DA:904,1
DA:905,1
DA:906,1
DA:908,1
DA:910,1
DA:912,1
DA:915,1
DA:916,1
DA:917,1
DA:918,1
DA:921,1
DA:922,1
DA:923,1
DA:925,1
DA:926,1
DA:927,1
DA:932,1
DA:934,1
DA:935,1
DA:936,1
DA:937,1
DA:938,1
DA:939,1
DA:940,1
DA:941,1
DA:942,1
DA:945,1
DA:947,1
DA:948,1
DA:949,1
DA:950,1
DA:951,1
DA:952,1
DA:955,1
DA:956,1
DA:957,1
DA:958,1
DA:959,1
DA:960,1
DA:962,1
DA:964,1
DA:967,1
DA:969,1
DA:970,1
DA:971,1
DA:973,1
DA:976,1
DA:978,1
DA:979,1
DA:980,1
DA:981,1
DA:982,1
DA:983,1
DA:984,1
DA:985,1
DA:988,1
DA:990,1
DA:991,1
DA:992,1
DA:993,1
DA:994,1
DA:995,1
DA:998,1
DA:1000,1
DA:1001,1
DA:1002,1
DA:1003,1
DA:1006,1
DA:1009,1
DA:1010,1
DA:1011,1
DA:1016,1
DA:1017,1
DA:1018,1
DA:1019,1
DA:1020,1
DA:1021,1
DA:1024,1
DA:1025,1
DA:1026,1
DA:1027,1
DA:1028,1
DA:1029,1
DA:1032,1
DA:1033,1
DA:1034,1
DA:1035,1
DA:1036,1
DA:1037,1
DA:1038,1
DA:1041,1
DA:1043,1
DA:1044,1
DA:1045,1
DA:1046,1
DA:1047,1
DA:1048,1
DA:1049,1
DA:1052,1
DA:1053,1
DA:1054,1
DA:1055,1
DA:1056,1
BRF:0
BRH:0
LF:766
LH:435
end_of_record
SF:/mnt/d/Projects/measurekit/measurekit_core/src/uncertainty.rs
FN:118,_RNCNvMs_NtCsiHEayBwtz3f_15measurekit_core11uncertaintyNtB6_17MonteCarloBackend10from_stats0B8_
FN:133,_RNCNvMs_NtCsiHEayBwtz3f_15measurekit_core11uncertaintyNtB6_17MonteCarloBackend14ensure_samples0B8_
FN:134,_RNCNvMs_NtCsiHEayBwtz3f_15measurekit_core11uncertaintyNtB6_17MonteCarloBackend14ensure_sampless_0B8_
FN:159,_RNCNvXs0_NtCsiHEayBwtz3f_15measurekit_core11uncertaintyNtB7_17MonteCarloBackendNtB7_18UncertaintyBackend13propagate_pow0B9_
FN:163,_RNCNvXs0_NtCsiHEayBwtz3f_15measurekit_core11uncertaintyNtB7_17MonteCarloBackendNtB7_18UncertaintyBackend18propagate_function0B9_
FN:165,_RNCNvXs0_NtCsiHEayBwtz3f_15measurekit_core11uncertaintyNtB7_17MonteCarloBackendNtB7_18UncertaintyBackend18propagate_functions0_0B9_
FN:166,_RNCNvXs0_NtCsiHEayBwtz3f_15measurekit_core11uncertaintyNtB7_17MonteCarloBackendNtB7_18UncertaintyBackend18propagate_functions1_0B9_
FN:167,_RNCNvXs0_NtCsiHEayBwtz3f_15measurekit_core11uncertaintyNtB7_17MonteCarloBackendNtB7_18UncertaintyBackend18propagate_functions2_0B9_
FN:164,_RNCNvXs0_NtCsiHEayBwtz3f_15measurekit_core11uncertaintyNtB7_17MonteCarloBackendNtB7_18UncertaintyBackend18propagate_functions_0B9_
FN:254,_RNCNvXs2_NtCsiHEayBwtz3f_15measurekit_core11uncertaintyNtB7_16UnscentedBackendNtB7_18UncertaintyBackend13propagate_pow0B9_
FN:259,_RNCNvXs2_NtCsiHEayBwtz3f_15measurekit_core11uncertaintyNtB7_16UnscentedBackendNtB7_18UncertaintyBackend18propagate_function0B9_
FN:261,_RNCNvXs2_NtCsiHEayBwtz3f_15measurekit_core11uncertaintyNtB7_16UnscentedBackendNtB7_18UncertaintyBackend18propagate_functions0_0B9_
FN:262,_RNCNvXs2_NtCsiHEayBwtz3f_15measurekit_core11uncertaintyNtB7_16UnscentedBackendNtB7_18UncertaintyBackend18propagate_functions1_0B9_
FN:263,_RNCNvXs2_NtCsiHEayBwtz3f_15measurekit_core11uncertaintyNtB7_16UnscentedBackendNtB7_18UncertaintyBackend18propagate_functions2_0B9_
FN:260,_RNCNvXs2_NtCsiHEayBwtz3f_15measurekit_core11uncertaintyNtB7_16UnscentedBackendNtB7_18UncertaintyBackend18propagate_functions_0B9_
FN:207,_RNCNvXs2_NtCsiHEayBwtz3f_15measurekit_core11uncertaintyNtB7_16UnscentedBackendNtB7_18UncertaintyBackend7std_dev0B9_
FN:280,_RNCNvXs3_NtCsiHEayBwtz3f_15measurekit_core11uncertaintyNtB7_13TensorBackendNtNtCs27Vx93FoQ6z_4core5clone5Clone5clone0B9_
FN:183,_RNvMs1_NtCsiHEayBwtz3f_15measurekit_core11uncertaintyNtB5_16UnscentedBackend10new_scalar
FN:112,_RNvMs_NtCsiHEayBwtz3f_15measurekit_core11uncertaintyNtB4_17MonteCarloBackend10from_stats
FN:121,_RNvMs_NtCsiHEayBwtz3f_15measurekit_core11uncertaintyNtB4_17MonteCarloBackend14ensure_samples
FN:34,_RNvXNtCsiHEayBwtz3f_15measurekit_core11uncertaintyNtB2_15GaussianBackendNtB2_18UncertaintyBackend13propagate_add
FN:65,_RNvXNtCsiHEayBwtz3f_15measurekit_core11uncertaintyNtB2_15GaussianBackendNtB2_18UncertaintyBackend13propagate_div
FN:52,_RNvXNtCsiHEayBwtz3f_15measurekit_core11uncertaintyNtB2_15GaussianBackendNtB2_18UncertaintyBackend13propagate_mul
FN:78,_RNvXNtCsiHEayBwtz3f_15measurekit_core11uncertaintyNtB2_15GaussianBackendNtB2_18UncertaintyBackend13propagate_pow
FN:43,_RNvXNtCsiHEayBwtz3f_15measurekit_core11uncertaintyNtB2_15GaussianBackendNtB2_18UncertaintyBackend13propagate_sub
FN:103,_RNvXNtCsiHEayBwtz3f_15measurekit_core11uncertaintyNtB2_15GaussianBackendNtB2_18UncertaintyBackend14get_model_name
FN:89,_RNvXNtCsiHEayBwtz3f_15measurekit_core11uncertaintyNtB2_15GaussianBackendNtB2_18UncertaintyBackend18propagate_function
FN:31,_RNvXNtCsiHEayBwtz3f_15measurekit_core11uncertaintyNtB2_15GaussianBackendNtB2_18UncertaintyBackend4mean
FN:32,_RNvXNtCsiHEayBwtz3f_15measurekit_core11uncertaintyNtB2_15GaussianBackendNtB2_18UncertaintyBackend7std_dev
FN:142,_RNvXs0_NtCsiHEayBwtz3f_15measurekit_core11uncertaintyNtB5_17MonteCarloBackendNtB5_18UncertaintyBackend13propagate_add
FN:154,_RNvXs0_NtCsiHEayBwtz3f_15measurekit_core11uncertaintyNtB5_17MonteCarloBackendNtB5_18UncertaintyBackend13propagate_div
FN:150,_RNvXs0_NtCsiHEayBwtz3f_15measurekit_core11uncertaintyNtB5_17MonteCarloBackendNtB5_18UncertaintyBackend13propagate_mul
FN:158,_RNvXs0_NtCsiHEayBwtz3f_15measurekit_core11uncertaintyNtB5_17MonteCarloBackendNtB5_18UncertaintyBackend13propagate_pow
FN:146,_RNvXs0_NtCsiHEayBwtz3f_15measurekit_core11uncertaintyNtB5_17MonteCarloBackendNtB5_18UncertaintyBackend13propagate_sub
FN:173,_RNvXs0_NtCsiHEayBwtz3f_15measurekit_core11uncertaintyNtB5_17MonteCarloBackendNtB5_18UncertaintyBackend14get_model_name
FN:161,_RNvXs0_NtCsiHEayBwtz3f_15measurekit_core11uncertaintyNtB5_17MonteCarloBackendNtB5_18UncertaintyBackend18propagate_function
FN:139,_RNvXs0_NtCsiHEayBwtz3f_15measurekit_core11uncertaintyNtB5_17MonteCarloBackendNtB5_18UncertaintyBackend4mean
FN:140,_RNvXs0_NtCsiHEayBwtz3f_15measurekit_core11uncertaintyNtB5_17MonteCarloBackendNtB5_18UncertaintyBackend7std_dev
FN:212,_RNvXs2_NtCsiHEayBwtz3f_15measurekit_core11uncertaintyNtB5_16UnscentedBackendNtB5_18UncertaintyBackend13propagate_add
FN:243,_RNvXs2_NtCsiHEayBwtz3f_15measurekit_core11uncertaintyNtB5_16UnscentedBackendNtB5_18UncertaintyBackend13propagate_div
FN:233,_RNvXs2_NtCsiHEayBwtz3f_15measurekit_core11uncertaintyNtB5_16UnscentedBackendNtB5_18UncertaintyBackend13propagate_mul
FN:253,_RNvXs2_NtCsiHEayBwtz3f_15measurekit_core11uncertaintyNtB5_16UnscentedBackendNtB5_18UncertaintyBackend13propagate_pow
FN:223,_RNvXs2_NtCsiHEayBwtz3f_15measurekit_core11uncertaintyNtB5_16UnscentedBackendNtB5_18UncertaintyBackend13propagate_sub
FN:269,_RNvXs2_NtCsiHEayBwtz3f_15measurekit_core11uncertaintyNtB5_16UnscentedBackendNtB5_18UncertaintyBackend14get_model_name
FN:257,_RNvXs2_NtCsiHEayBwtz3f_15measurekit_core11uncertaintyNtB5_16UnscentedBackendNtB5_18UncertaintyBackend18propagate_function
FN:202,_RNvXs2_NtCsiHEayBwtz3f_15measurekit_core11uncertaintyNtB5_16UnscentedBackendNtB5_18UncertaintyBackend4mean
FN:203,_RNvXs2_NtCsiHEayBwtz3f_15measurekit_core11uncertaintyNtB5_16UnscentedBackendNtB5_18UncertaintyBackend7std_dev
FN:279,_RNvXs3_NtCsiHEayBwtz3f_15measurekit_core11uncertaintyNtB5_13TensorBackendNtNtCs27Vx93FoQ6z_4core5clone5Clone5clone
FN:293,_RNvXs4_NtCsiHEayBwtz3f_15measurekit_core11uncertaintyNtB5_13TensorBackendNtB5_18UncertaintyBackend13propagate_add
FN:313,_RNvXs4_NtCsiHEayBwtz3f_15measurekit_core11uncertaintyNtB5_13TensorBackendNtB5_18UncertaintyBackend13propagate_div
FN:307,_RNvXs4_NtCsiHEayBwtz3f_15measurekit_core11uncertaintyNtB5_13TensorBackendNtB5_18UncertaintyBackend13propagate_mul
FN:319,_RNvXs4_NtCsiHEayBwtz3f_15measurekit_core11uncertaintyNtB5_13TensorBackendNtB5_18UncertaintyBackend13propagate_pow
FN:301,_RNvXs4_NtCsiHEayBwtz3f_15measurekit_core11uncertaintyNtB5_13TensorBackendNtB5_18UncertaintyBackend13propagate_sub
FN:329,_RNvXs4_NtCsiHEayBwtz3f_15measurekit_core11uncertaintyNtB5_13TensorBackendNtB5_18UncertaintyBackend14get_model_name
FN:324,_RNvXs4_NtCsiHEayBwtz3f_15measurekit_core11uncertaintyNtB5_13TensorBackendNtB5_18UncertaintyBackend18propagate_function
FN:290,_RNvXs4_NtCsiHEayBwtz3f_15measurekit_core11uncertaintyNtB5_13TensorBackendNtB5_18UncertaintyBackend4mean
FN:291,_RNvXs4_NtCsiHEayBwtz3f_15measurekit_core11uncertaintyNtB5_13TensorBackendNtB5_18UncertaintyBackend7std_dev
FNDA:0,_RNCNvMs_NtCsiHEayBwtz3f_15measurekit_core11uncertaintyNtB6_17MonteCarloBackend10from_stats0B8_
FNDA:0,_RNCNvMs_NtCsiHEayBwtz3f_15measurekit_core11uncertaintyNtB6_17MonteCarloBackend14ensure_samples0B8_
FNDA:0,_RNCNvMs_NtCsiHEayBwtz3f_15measurekit_core11uncertaintyNtB6_17MonteCarloBackend14ensure_sampless_0B8_
FNDA:0,_RNCNvXs0_NtCsiHEayBwtz3f_15measurekit_core11uncertaintyNtB7_17MonteCarloBackendNtB7_18UncertaintyBackend13propagate_pow0B9_
FNDA:0,_RNCNvXs0_NtCsiHEayBwtz3f_15measurekit_core11uncertaintyNtB7_17MonteCarloBackendNtB7_18UncertaintyBackend18propagate_function0B9_
FNDA:0,_RNCNvXs0_NtCsiHEayBwtz3f_15measurekit_core11uncertaintyNtB7_17MonteCarloBackendNtB7_18UncertaintyBackend18propagate_functions0_0B9_
FNDA:0,_RNCNvXs0_NtCsiHEayBwtz3f_15measurekit_core11uncertaintyNtB7_17MonteCarloBackendNtB7_18UncertaintyBackend18propagate_functions1_0B9_
FNDA:0,_RNCNvXs0_NtCsiHEayBwtz3f_15measurekit_core11uncertaintyNtB7_17MonteCarloBackendNtB7_18UncertaintyBackend18propagate_functions2_0B9_
FNDA:0,_RNCNvXs0_NtCsiHEayBwtz3f_15measurekit_core11uncertaintyNtB7_17MonteCarloBackendNtB7_18UncertaintyBackend18propagate_functions_0B9_
FNDA:0,_RNCNvXs2_NtCsiHEayBwtz3f_15measurekit_core11uncertaintyNtB7_16UnscentedBackendNtB7_18UncertaintyBackend13propagate_pow0B9_
FNDA:0,_RNCNvXs2_NtCsiHEayBwtz3f_15measurekit_core11uncertaintyNtB7_16UnscentedBackendNtB7_18UncertaintyBackend18propagate_function0B9_
FNDA:0,_RNCNvXs2_NtCsiHEayBwtz3f_15measurekit_core11uncertaintyNtB7_16UnscentedBackendNtB7_18UncertaintyBackend18propagate_functions0_0B9_
FNDA:0,_RNCNvXs2_NtCsiHEayBwtz3f_15measurekit_core11uncertaintyNtB7_16UnscentedBackendNtB7_18UncertaintyBackend18propagate_functions1_0B9_
FNDA:0,_RNCNvXs2_NtCsiHEayBwtz3f_15measurekit_core11uncertaintyNtB7_16UnscentedBackendNtB7_18UncertaintyBackend18propagate_functions2_0B9_
FNDA:0,_RNCNvXs2_NtCsiHEayBwtz3f_15measurekit_core11uncertaintyNtB7_16UnscentedBackendNtB7_18UncertaintyBackend18propagate_functions_0B9_
FNDA:0,_RNCNvXs2_NtCsiHEayBwtz3f_15measurekit_core11uncertaintyNtB7_16UnscentedBackendNtB7_18UncertaintyBackend7std_dev0B9_
FNDA:0,_RNCNvXs3_NtCsiHEayBwtz3f_15measurekit_core11uncertaintyNtB7_13TensorBackendNtNtCs27Vx93FoQ6z_4core5clone5Clone5clone0B9_
FNDA:0,_RNvMs1_NtCsiHEayBwtz3f_15measurekit_core11uncertaintyNtB5_16UnscentedBackend10new_scalar
FNDA:0,_RNvMs_NtCsiHEayBwtz3f_15measurekit_core11uncertaintyNtB4_17MonteCarloBackend10from_stats
FNDA:0,_RNvMs_NtCsiHEayBwtz3f_15measurekit_core11uncertaintyNtB4_17MonteCarloBackend14ensure_samples
FNDA:0,_RNvXNtCsiHEayBwtz3f_15measurekit_core11uncertaintyNtB2_15GaussianBackendNtB2_18UncertaintyBackend13propagate_add
FNDA:0,_RNvXNtCsiHEayBwtz3f_15measurekit_core11uncertaintyNtB2_15GaussianBackendNtB2_18UncertaintyBackend13propagate_div
FNDA:0,_RNvXNtCsiHEayBwtz3f_15measurekit_core11uncertaintyNtB2_15GaussianBackendNtB2_18UncertaintyBackend13propagate_mul
FNDA:0,_RNvXNtCsiHEayBwtz3f_15measurekit_core11uncertaintyNtB2_15GaussianBackendNtB2_18UncertaintyBackend13propagate_pow
FNDA:0,_RNvXNtCsiHEayBwtz3f_15measurekit_core11uncertaintyNtB2_15GaussianBackendNtB2_18UncertaintyBackend13propagate_sub
FNDA:0,_RNvXNtCsiHEayBwtz3f_15measurekit_core11uncertaintyNtB2_15GaussianBackendNtB2_18UncertaintyBackend14get_model_name
FNDA:0,_RNvXNtCsiHEayBwtz3f_15measurekit_core11uncertaintyNtB2_15GaussianBackendNtB2_18UncertaintyBackend18propagate_function
FNDA:0,_RNvXNtCsiHEayBwtz3f_15measurekit_core11uncertaintyNtB2_15GaussianBackendNtB2_18UncertaintyBackend4mean
FNDA:0,_RNvXNtCsiHEayBwtz3f_15measurekit_core11uncertaintyNtB2_15GaussianBackendNtB2_18UncertaintyBackend7std_dev
FNDA:0,_RNvXs0_NtCsiHEayBwtz3f_15measurekit_core11uncertaintyNtB5_17MonteCarloBackendNtB5_18UncertaintyBackend13propagate_add
FNDA:0,_RNvXs0_NtCsiHEayBwtz3f_15measurekit_core11uncertaintyNtB5_17MonteCarloBackendNtB5_18UncertaintyBackend13propagate_div
FNDA:0,_RNvXs0_NtCsiHEayBwtz3f_15measurekit_core11uncertaintyNtB5_17MonteCarloBackendNtB5_18UncertaintyBackend13propagate_mul
FNDA:0,_RNvXs0_NtCsiHEayBwtz3f_15measurekit_core11uncertaintyNtB5_17MonteCarloBackendNtB5_18UncertaintyBackend13propagate_pow
FNDA:0,_RNvXs0_NtCsiHEayBwtz3f_15measurekit_core11uncertaintyNtB5_17MonteCarloBackendNtB5_18UncertaintyBackend13propagate_sub
FNDA:0,_RNvXs0_NtCsiHEayBwtz3f_15measurekit_core11uncertaintyNtB5_17MonteCarloBackendNtB5_18UncertaintyBackend14get_model_name
FNDA:0,_RNvXs0_NtCsiHEayBwtz3f_15measurekit_core11uncertaintyNtB5_17MonteCarloBackendNtB5_18UncertaintyBackend18propagate_function
FNDA:0,_RNvXs0_NtCsiHEayBwtz3f_15measurekit_core11uncertaintyNtB5_17MonteCarloBackendNtB5_18UncertaintyBackend4mean
FNDA:0,_RNvXs0_NtCsiHEayBwtz3f_15measurekit_core11uncertaintyNtB5_17MonteCarloBackendNtB5_18UncertaintyBackend7std_dev
FNDA:0,_RNvXs2_NtCsiHEayBwtz3f_15measurekit_core11uncertaintyNtB5_16UnscentedBackendNtB5_18UncertaintyBackend13propagate_add
FNDA:0,_RNvXs2_NtCsiHEayBwtz3f_15measurekit_core11uncertaintyNtB5_16UnscentedBackendNtB5_18UncertaintyBackend13propagate_div
FNDA:0,_RNvXs2_NtCsiHEayBwtz3f_15measurekit_core11uncertaintyNtB5_16UnscentedBackendNtB5_18UncertaintyBackend13propagate_mul
FNDA:0,_RNvXs2_NtCsiHEayBwtz3f_15measurekit_core11uncertaintyNtB5_16UnscentedBackendNtB5_18UncertaintyBackend13propagate_pow
FNDA:0,_RNvXs2_NtCsiHEayBwtz3f_15measurekit_core11uncertaintyNtB5_16UnscentedBackendNtB5_18UncertaintyBackend13propagate_sub
FNDA:0,_RNvXs2_NtCsiHEayBwtz3f_15measurekit_core11uncertaintyNtB5_16UnscentedBackendNtB5_18UncertaintyBackend14get_model_name
FNDA:0,_RNvXs2_NtCsiHEayBwtz3f_15measurekit_core11uncertaintyNtB5_16UnscentedBackendNtB5_18UncertaintyBackend18propagate_function
FNDA:0,_RNvXs2_NtCsiHEayBwtz3f_15measurekit_core11uncertaintyNtB5_16UnscentedBackendNtB5_18UncertaintyBackend4mean
FNDA:0,_RNvXs2_NtCsiHEayBwtz3f_15measurekit_core11uncertaintyNtB5_16UnscentedBackendNtB5_18UncertaintyBackend7std_dev
FNDA:0,_RNvXs3_NtCsiHEayBwtz3f_15measurekit_core11uncertaintyNtB5_13TensorBackendNtNtCs27Vx93FoQ6z_4core5clone5Clone5clone
FNDA:0,_RNvXs4_NtCsiHEayBwtz3f_15measurekit_core11uncertaintyNtB5_13TensorBackendNtB5_18UncertaintyBackend13propagate_add
FNDA:0,_RNvXs4_NtCsiHEayBwtz3f_15measurekit_core11uncertaintyNtB5_13TensorBackendNtB5_18UncertaintyBackend13propagate_div
FNDA:0,_RNvXs4_NtCsiHEayBwtz3f_15measurekit_core11uncertaintyNtB5_13TensorBackendNtB5_18UncertaintyBackend13propagate_mul
FNDA:0,_RNvXs4_NtCsiHEayBwtz3f_15measurekit_core11uncertaintyNtB5_13TensorBackendNtB5_18UncertaintyBackend13propagate_pow
FNDA:0,_RNvXs4_NtCsiHEayBwtz3f_15measurekit_core11uncertaintyNtB5_13TensorBackendNtB5_18UncertaintyBackend13propagate_sub
FNDA:0,_RNvXs4_NtCsiHEayBwtz3f_15measurekit_core11uncertaintyNtB5_13TensorBackendNtB5_18UncertaintyBackend14get_model_name
FNDA:0,_RNvXs4_NtCsiHEayBwtz3f_15measurekit_core11uncertaintyNtB5_13TensorBackendNtB5_18UncertaintyBackend18propagate_function
FNDA:0,_RNvXs4_NtCsiHEayBwtz3f_15measurekit_core11uncertaintyNtB5_13TensorBackendNtB5_18UncertaintyBackend4mean
FNDA:0,_RNvXs4_NtCsiHEayBwtz3f_15measurekit_core11uncertaintyNtB5_13TensorBackendNtB5_18UncertaintyBackend7std_dev
FNF:57
FNH:0
DA:31,0
DA:32,0
DA:34,0
DA:35,0
DA:36,0
DA:38,0
DA:39,0
DA:40,0
DA:41,0
DA:43,0
DA:44,0
DA:45,0
DA:47,0
DA:48,0
DA:49,0
DA:50,0
DA:52,0
DA:53,0
DA:54,0
DA:56,0
DA:57,0
DA:58,0
DA:59,0
DA:60,0
DA:61,0
DA:62,0
DA:63,0
DA:65,0
DA:66,0
DA:67,0
DA:69,0
DA:70,0
DA:71,0
DA:72,0
DA:73,0
DA:74,0
DA:75,0
DA:76,0
DA:78,0
DA:79,0
DA:80,0
DA:81,0
DA:82,0
DA:83,0
DA:84,0
DA:85,0
DA:86,0
DA:87,0
DA:89,0
DA:90,0
DA:91,0
DA:92,0
DA:93,0
DA:94,0
DA:95,0
DA:96,0
DA:97,0
DA:98,0
DA:100,0
DA:101,0
DA:103,0
DA:112,0
DA:113,0
DA:114,0
DA:115,0
DA:116,0
DA:117,0
DA:118,0
DA:119,0
DA:121,0
DA:122,0
DA:123,0
DA:127,0
DA:128,0
DA:130,0
DA:131,0
DA:132,0
DA:133,0
DA:134,0
DA:135,0
DA:139,0
DA:140,0
DA:142,0
DA:143,0
DA:144,0
DA:145,0
DA:146,0
DA:147,0
DA:148,0
DA:149,0
DA:150,0
DA:151,0
DA:152,0
DA:153,0
DA:154,0
DA:155,0
DA:156,0
DA:157,0
DA:158,0
DA:159,0
DA:160,0
DA:161,0
DA:162,0
DA:163,0
DA:164,0
DA:165,0
DA:166,0
DA:167,0
DA:168,0
DA:170,0
DA:171,0
DA:173,0
DA:183,0
DA:184,0
DA:185,0
DA:186,0
DA:187,0
DA:188,0
DA:189,0
DA:190,0
DA:191,0
DA:192,0
DA:194,0
DA:195,0
DA:196,0
DA:197,0
DA:198,0
DA:202,0
DA:203,0
DA:204,0
DA:205,0
DA:206,0
DA:207,0
DA:208,0
DA:209,0
DA:210,0
DA:212,0
DA:213,0
DA:214,0
DA:215,0
DA:216,0
DA:219,0
DA:220,0
DA:221,0
DA:222,0
DA:223,0
DA:224,0
DA:225,0
DA:226,0
DA:227,0
DA:229,0
DA:230,0
DA:231,0
DA:232,0
DA:233,0
DA:234,0
DA:235,0
DA:236,0
DA:237,0
DA:239,0
DA:240,0
DA:241,0
DA:242,0
DA:243,0
DA:244,0
DA:245,0
DA:246,0
DA:247,0
DA:249,0
DA:250,0
DA:251,0
DA:252,0
DA:253,0
DA:254,0
DA:255,0
DA:256,0
DA:257,0
DA:258,0
DA:259,0
DA:260,0
DA:261,0
DA:262,0
DA:263,0
DA:264,0
DA:266,0
DA:267,0
DA:269,0
DA:279,0
DA:280,0
DA:281,0
DA:282,0
DA:283,0
DA:284,0
DA:285,0
DA:286,0
DA:290,0
DA:291,0
DA:293,0
DA:295,0
DA:296,0
DA:298,0
DA:299,0
DA:301,0
DA:302,0
DA:303,0
DA:304,0
DA:305,0
DA:307,0
DA:308,0
DA:309,0
DA:310,0
DA:311,0
DA:313,0
DA:314,0
DA:315,0
DA:316,0
DA:317,0
DA:319,0
DA:320,0
DA:321,0
DA:322,0
DA:324,0
DA:325,0
DA:326,0
DA:327,0
DA:329,0
BRF:0
BRH:0
LF:243
LH:0
end_of_record
SF:/mnt/d/Projects/measurekit/measurekit_core/src/units.rs
FN:78,_RNvMs0_NtCsiHEayBwtz3f_15measurekit_core5unitsNtB5_12RationalUnit12calculate_id
FN:51,_RNvMs0_NtCsiHEayBwtz3f_15measurekit_core5unitsNtB5_12RationalUnit14parse_exponent
FN:89,_RNvMs0_NtCsiHEayBwtz3f_15measurekit_core5unitsNtB5_12RationalUnit19new_from_dimensions
FN:65,_RNvMs0_NtCsiHEayBwtz3f_15measurekit_core5unitsNtB5_12RationalUnit21parse_dimensions_dict
FN:111,_RNvMs0_NtCsiHEayBwtz3f_15measurekit_core5unitsNtB5_12RationalUnit3div
FN:95,_RNvMs0_NtCsiHEayBwtz3f_15measurekit_core5unitsNtB5_12RationalUnit3mul
FN:127,_RNvMs0_NtCsiHEayBwtz3f_15measurekit_core5unitsNtB5_12RationalUnit3pow
FN:244,_RNvMsA_NtCsiHEayBwtz3f_15measurekit_core5unitsNtB5_12UnitRegistry13add_base_unit
FN:255,_RNvMsA_NtCsiHEayBwtz3f_15measurekit_core5unitsNtB5_12UnitRegistry14register_alias
FN:260,_RNvMsA_NtCsiHEayBwtz3f_15measurekit_core5unitsNtB5_12UnitRegistry14resolve_symbol
FN:251,_RNvMsA_NtCsiHEayBwtz3f_15measurekit_core5unitsNtB5_12UnitRegistry16add_derived_unit
FN:236,_RNvMsA_NtCsiHEayBwtz3f_15measurekit_core5unitsNtB5_12UnitRegistry3new
FN:289,_RNvMsA_NtCsiHEayBwtz3f_15measurekit_core5unitsNtB5_12UnitRegistry8contains
FN:272,_RNvMsA_NtCsiHEayBwtz3f_15measurekit_core5unitsNtB5_12UnitRegistry8get_unit
FN:212,_RNvMsf_NtCsiHEayBwtz3f_15measurekit_core5unitsNtB5_12RationalUnit10___reduce__
FN:208,_RNvMsf_NtCsiHEayBwtz3f_15measurekit_core5unitsNtB5_12RationalUnit10dimensions
FN:160,_RNvMsf_NtCsiHEayBwtz3f_15measurekit_core5unitsNtB5_12RationalUnit11___truediv__
FN:144,_RNvMsf_NtCsiHEayBwtz3f_15measurekit_core5unitsNtB5_12RationalUnit3new
FN:177,_RNvMsf_NtCsiHEayBwtz3f_15measurekit_core5unitsNtB5_12RationalUnit6___eq__
FN:156,_RNvMsf_NtCsiHEayBwtz3f_15measurekit_core5unitsNtB5_12RationalUnit7___mul__
FN:164,_RNvMsf_NtCsiHEayBwtz3f_15measurekit_core5unitsNtB5_12RationalUnit7___pow__
FN:181,_RNvMsf_NtCsiHEayBwtz3f_15measurekit_core5unitsNtB5_12RationalUnit8___hash__
FN:187,_RNvMsf_NtCsiHEayBwtz3f_15measurekit_core5unitsNtB5_12RationalUnit8___repr__
FN:220,_RNvMsf_NtCsiHEayBwtz3f_15measurekit_core5unitsNtB5_12RationalUnit9to_string
FN:140,_RNvMsp_NtCsiHEayBwtz3f_15measurekit_core5unitsNtB5_12RationalUnit21___pymethod___hash____
FN:140,_RNvMsp_NtCsiHEayBwtz3f_15measurekit_core5unitsNtB5_12RationalUnit21___pymethod___repr____
FN:140,_RNvMsp_NtCsiHEayBwtz3f_15measurekit_core5unitsNtB5_12RationalUnit23___pymethod___reduce____
FN:140,_RNvMsp_NtCsiHEayBwtz3f_15measurekit_core5unitsNtB5_12RationalUnit27___pymethod_get_dimensions__
FN:15,_RNvNtCsiHEayBwtz3f_15measurekit_core5units15get_cached_unit
FN:39,_RNvXNtCsiHEayBwtz3f_15measurekit_core5unitsNtB2_12RationalUnitNtNtCs27Vx93FoQ6z_4core3cmp9PartialEq2eq
FN:307,_RNvNtNtCsiHEayBwtz3f_15measurekit_core5units5tests4time
FN:303,_RNvNtNtCsiHEayBwtz3f_15measurekit_core5units5tests6length
FN:399,_RNvNtNtCsiHEayBwtz3f_15measurekit_core5units5testss_18hash_is_same_as_id
FN:376,_RNvNtNtCsiHEayBwtz3f_15measurekit_core5units5testss_18repr_dimensionless
FN:338,_RNvNtNtCsiHEayBwtz3f_15measurekit_core5units5testss_19pow_scales_exponent
FN:556,_RNvNtNtCsiHEayBwtz3f_15measurekit_core5units5testss_19rational_unit_pydiv
FN:545,_RNvNtNtCsiHEayBwtz3f_15measurekit_core5units5testss_19rational_unit_pymul
FN:566,_RNvNtNtCsiHEayBwtz3f_15measurekit_core5units5testss_19rational_unit_pypow
FN:331,_RNvNtNtCsiHEayBwtz3f_15measurekit_core5units5testss_20div_mixed_dimensions
FN:640,_RNvNtNtCsiHEayBwtz3f_15measurekit_core5units5testss_20rational_unit_reduce
FN:393,_RNvNtNtCsiHEayBwtz3f_15measurekit_core5units5testss_21repr_fractional_power
FN:356,_RNvNtNtCsiHEayBwtz3f_15measurekit_core5units5testss_22calculate_id_is_stable
FN:312,_RNvNtNtCsiHEayBwtz3f_15measurekit_core5units5testss_22dimensionless_is_empty
FN:482,_RNvNtNtCsiHEayBwtz3f_15measurekit_core5units5testss_23parse_exponent_int_zero
FN:344,_RNvNtNtCsiHEayBwtz3f_15measurekit_core5units5testss_23pow_fractional_exponent
FN:688,_RNvNtNtCsiHEayBwtz3f_15measurekit_core5units5testss_24hash_used_as_hashmap_key
FN:370,_RNvNtNtCsiHEayBwtz3f_15measurekit_core5units5testss_24mul_then_div_is_identity
FN:695,_RNvNtNtCsiHEayBwtz3f_15measurekit_core5units5testss_24rational_unit_eq_and_neq
FN:701,_RNvNtNtCsiHEayBwtz3f_15measurekit_core5units5testss_25get_cached_unit_cache_hit
FN:319,_RNvNtNtCsiHEayBwtz3f_15measurekit_core5units5testss_25mul_accumulates_exponents
FN:500,_RNvNtNtCsiHEayBwtz3f_15measurekit_core5units5testss_25parse_exponent_float_zero
FN:387,_RNvNtNtCsiHEayBwtz3f_15measurekit_core5units5testss_25repr_higher_integer_power
FN:443,_RNvNtNtCsiHEayBwtz3f_15measurekit_core5units5testss_25unit_registry_add_derived
FN:326,_RNvNtNtCsiHEayBwtz3f_15measurekit_core5units5testss_26div_cancels_same_dimension
FN:473,_RNvNtNtCsiHEayBwtz3f_15measurekit_core5units5testss_26parse_exponent_int_nonzero
FN:350,_RNvNtNtCsiHEayBwtz3f_15measurekit_core5units5testss_26pow_zero_removes_dimension
FN:530,_RNvNtNtCsiHEayBwtz3f_15measurekit_core5units5testss_27parse_dimensions_dict_mixed
FN:382,_RNvNtNtCsiHEayBwtz3f_15measurekit_core5units5testss_27repr_single_unit_exponent_1
FN:413,_RNvNtNtCsiHEayBwtz3f_15measurekit_core5units5testss_27to_string_delegates_to_repr
FN:577,_RNvNtNtCsiHEayBwtz3f_15measurekit_core5units5testss_27unit_registry_get_unit_base
FN:491,_RNvNtNtCsiHEayBwtz3f_15measurekit_core5units5testss_28parse_exponent_float_nonzero
FN:455,_RNvNtNtCsiHEayBwtz3f_15measurekit_core5units5testss_28parse_exponent_tuple_nonzero
FN:418,_RNvNtNtCsiHEayBwtz3f_15measurekit_core5units5testss_28unit_registry_add_and_lookup
FN:430,_RNvNtNtCsiHEayBwtz3f_15measurekit_core5units5testss_28unit_registry_alias_resolves
FN:593,_RNvNtNtCsiHEayBwtz3f_15measurekit_core5units5testss_30unit_registry_get_unit_derived
FN:757,_RNvNtNtCsiHEayBwtz3f_15measurekit_core5units5testss_31unit_registry_new_via_pymethods
FN:627,_RNvNtNtCsiHEayBwtz3f_15measurekit_core5units5testss_32unit_registry_get_unit_not_found
FN:610,_RNvNtNtCsiHEayBwtz3f_15measurekit_core5units5testss_32unit_registry_get_unit_via_alias
FN:405,_RNvNtNtCsiHEayBwtz3f_15measurekit_core5units5testss_33dimensions_accessor_returns_clone
FN:737,_RNvNtNtCsiHEayBwtz3f_15measurekit_core5units5testss_34rational_unit_pypow_tuple_exponent
FN:682,_RNvNtNtCsiHEayBwtz3f_15measurekit_core5units5testss_35mul_zero_exponent_removes_dimension
FN:464,_RNvNtNtCsiHEayBwtz3f_15measurekit_core5units5testss_35parse_exponent_tuple_zero_numerator
FN:519,_RNvNtNtCsiHEayBwtz3f_15measurekit_core5units5testss_36parse_dimensions_dict_non_dict_input
FN:667,_RNvNtNtCsiHEayBwtz3f_15measurekit_core5units5testss_37unit_registry_resolve_caps_at_10_hops
FN:363,_RNvNtNtCsiHEayBwtz3f_15measurekit_core5units5testss_38calculate_id_differs_for_distinct_dims
FN:763,_RNvNtNtCsiHEayBwtz3f_15measurekit_core5units5testss_39get_unit_fallback_to_base_original_name
FN:780,_RNvNtNtCsiHEayBwtz3f_15measurekit_core5units5testss_42get_unit_fallback_to_derived_original_name
FN:748,_RNvNtNtCsiHEayBwtz3f_15measurekit_core5units5testss_43rational_unit_pypow_invalid_exponent_errors
FN:509,_RNvNtNtCsiHEayBwtz3f_15measurekit_core5units5testss_45parse_exponent_unrecognized_type_returns_none
FN:712,_RNvNtNtCsiHEayBwtz3f_15measurekit_core5units5testss_47rational_unit_new_pymethods_empty_and_with_dims
FN:649,_RNvNtNtCsiHEayBwtz3f_15measurekit_core5units5testss_51unit_registry_get_unit_via_unresolved_base_fallback
FN:558,_RNCNvNtNtCsiHEayBwtz3f_15measurekit_core5units5testss_19rational_unit_pydiv0B7_
FN:547,_RNCNvNtNtCsiHEayBwtz3f_15measurekit_core5units5testss_19rational_unit_pymul0B7_
FN:568,_RNCNvNtNtCsiHEayBwtz3f_15measurekit_core5units5testss_19rational_unit_pypow0B7_
FN:642,_RNCNvNtNtCsiHEayBwtz3f_15measurekit_core5units5testss_20rational_unit_reduce0B7_
FN:484,_RNCNvNtNtCsiHEayBwtz3f_15measurekit_core5units5testss_23parse_exponent_int_zero0B7_
FN:703,_RNCNvNtNtCsiHEayBwtz3f_15measurekit_core5units5testss_25get_cached_unit_cache_hit0B7_
FN:502,_RNCNvNtNtCsiHEayBwtz3f_15measurekit_core5units5testss_25parse_exponent_float_zero0B7_
FN:475,_RNCNvNtNtCsiHEayBwtz3f_15measurekit_core5units5testss_26parse_exponent_int_nonzero0B7_
FN:532,_RNCNvNtNtCsiHEayBwtz3f_15measurekit_core5units5testss_27parse_dimensions_dict_mixed0B7_
FN:579,_RNCNvNtNtCsiHEayBwtz3f_15measurekit_core5units5testss_27unit_registry_get_unit_base0B7_
FN:493,_RNCNvNtNtCsiHEayBwtz3f_15measurekit_core5units5testss_28parse_exponent_float_nonzero0B7_
FN:457,_RNCNvNtNtCsiHEayBwtz3f_15measurekit_core5units5testss_28parse_exponent_tuple_nonzero0B7_
FN:595,_RNCNvNtNtCsiHEayBwtz3f_15measurekit_core5units5testss_30unit_registry_get_unit_derived0B7_
FN:629,_RNCNvNtNtCsiHEayBwtz3f_15measurekit_core5units5testss_32unit_registry_get_unit_not_found0B7_
FN:612,_RNCNvNtNtCsiHEayBwtz3f_15measurekit_core5units5testss_32unit_registry_get_unit_via_alias0B7_
FN:739,_RNCNvNtNtCsiHEayBwtz3f_15measurekit_core5units5testss_34rational_unit_pypow_tuple_exponent0B7_
FN:466,_RNCNvNtNtCsiHEayBwtz3f_15measurekit_core5units5testss_35parse_exponent_tuple_zero_numerator0B7_
FN:521,_RNCNvNtNtCsiHEayBwtz3f_15measurekit_core5units5testss_36parse_dimensions_dict_non_dict_input0B7_
FN:765,_RNCNvNtNtCsiHEayBwtz3f_15measurekit_core5units5testss_39get_unit_fallback_to_base_original_name0B7_
FN:782,_RNCNvNtNtCsiHEayBwtz3f_15measurekit_core5units5testss_42get_unit_fallback_to_derived_original_name0B7_
FN:750,_RNCNvNtNtCsiHEayBwtz3f_15measurekit_core5units5testss_43rational_unit_pypow_invalid_exponent_errors0B7_
FN:511,_RNCNvNtNtCsiHEayBwtz3f_15measurekit_core5units5testss_45parse_exponent_unrecognized_type_returns_none0B7_
FN:714,_RNCNvNtNtCsiHEayBwtz3f_15measurekit_core5units5testss_47rational_unit_new_pymethods_empty_and_with_dims0B7_
FN:651,_RNCNvNtNtCsiHEayBwtz3f_15measurekit_core5units5testss_51unit_registry_get_unit_via_unresolved_base_fallback0B7_
FN:45,_RINvXs_NtCsiHEayBwtz3f_15measurekit_core5unitsNtB5_12RationalUnitNtNtCs27Vx93FoQ6z_4core4hash4Hash4hashNtNtNtCs75vJTIYSa2J_3std4hash6random13DefaultHasherEB7_
FN:152,_RNCNvMsf_NtCsiHEayBwtz3f_15measurekit_core5unitsNtB7_12RationalUnit3new0B9_
FN:16,_RNCNvNtCsiHEayBwtz3f_15measurekit_core5units15get_cached_unit0B5_
FNDA:91,_RNvMs0_NtCsiHEayBwtz3f_15measurekit_core5unitsNtB5_12RationalUnit12calculate_id
FNDA:12,_RNvMs0_NtCsiHEayBwtz3f_15measurekit_core5unitsNtB5_12RationalUnit14parse_exponent
FNDA:87,_RNvMs0_NtCsiHEayBwtz3f_15measurekit_core5unitsNtB5_12RationalUnit19new_from_dimensions
FNDA:4,_RNvMs0_NtCsiHEayBwtz3f_15measurekit_core5unitsNtB5_12RationalUnit21parse_dimensions_dict
FNDA:7,_RNvMs0_NtCsiHEayBwtz3f_15measurekit_core5unitsNtB5_12RationalUnit3div
FNDA:7,_RNvMs0_NtCsiHEayBwtz3f_15measurekit_core5unitsNtB5_12RationalUnit3mul
FNDA:6,_RNvMs0_NtCsiHEayBwtz3f_15measurekit_core5unitsNtB5_12RationalUnit3pow
FNDA:7,_RNvMsA_NtCsiHEayBwtz3f_15measurekit_core5unitsNtB5_12UnitRegistry13add_base_unit
FNDA:16,_RNvMsA_NtCsiHEayBwtz3f_15measurekit_core5unitsNtB5_12UnitRegistry14register_alias
FNDA:13,_RNvMsA_NtCsiHEayBwtz3f_15measurekit_core5unitsNtB5_12UnitRegistry14resolve_symbol
FNDA:3,_RNvMsA_NtCsiHEayBwtz3f_15measurekit_core5unitsNtB5_12UnitRegistry16add_derived_unit
FNDA:1,_RNvMsA_NtCsiHEayBwtz3f_15measurekit_core5unitsNtB5_12UnitRegistry3new
FNDA:4,_RNvMsA_NtCsiHEayBwtz3f_15measurekit_core5unitsNtB5_12UnitRegistry8contains
FNDA:7,_RNvMsA_NtCsiHEayBwtz3f_15measurekit_core5unitsNtB5_12UnitRegistry8get_unit
FNDA:1,_RNvMsf_NtCsiHEayBwtz3f_15measurekit_core5unitsNtB5_12RationalUnit10___reduce__
FNDA:2,_RNvMsf_NtCsiHEayBwtz3f_15measurekit_core5unitsNtB5_12RationalUnit10dimensions
FNDA:1,_RNvMsf_NtCsiHEayBwtz3f_15measurekit_core5unitsNtB5_12RationalUnit11___truediv__
FNDA:3,_RNvMsf_NtCsiHEayBwtz3f_15measurekit_core5unitsNtB5_12RationalUnit3new
FNDA:2,_RNvMsf_NtCsiHEayBwtz3f_15measurekit_core5unitsNtB5_12RationalUnit6___eq__
FNDA:1,_RNvMsf_NtCsiHEayBwtz3f_15measurekit_core5unitsNtB5_12RationalUnit7___mul__
FNDA:3,_RNvMsf_NtCsiHEayBwtz3f_15measurekit_core5unitsNtB5_12RationalUnit7___pow__
FNDA:1,_RNvMsf_NtCsiHEayBwtz3f_15measurekit_core5unitsNtB5_12RationalUnit8___hash__
FNDA:5,_RNvMsf_NtCsiHEayBwtz3f_15measurekit_core5unitsNtB5_12RationalUnit8___repr__
FNDA:1,_RNvMsf_NtCsiHEayBwtz3f_15measurekit_core5unitsNtB5_12RationalUnit9to_string
FNDA:0,_RNvMsp_NtCsiHEayBwtz3f_15measurekit_core5unitsNtB5_12RationalUnit21___pymethod___hash____
FNDA:0,_RNvMsp_NtCsiHEayBwtz3f_15measurekit_core5unitsNtB5_12RationalUnit21___pymethod___repr____
FNDA:0,_RNvMsp_NtCsiHEayBwtz3f_15measurekit_core5unitsNtB5_12RationalUnit23___pymethod___reduce____
FNDA:0,_RNvMsp_NtCsiHEayBwtz3f_15measurekit_core5unitsNtB5_12RationalUnit27___pymethod_get_dimensions__
FNDA:12,_RNvNtCsiHEayBwtz3f_15measurekit_core5units15get_cached_unit
FNDA:7,_RNvXNtCsiHEayBwtz3f_15measurekit_core5unitsNtB2_12RationalUnitNtNtCs27Vx93FoQ6z_4core3cmp9PartialEq2eq
FNDA:8,_RNvNtNtCsiHEayBwtz3f_15measurekit_core5units5tests4time
FNDA:34,_RNvNtNtCsiHEayBwtz3f_15measurekit_core5units5tests6length
FNDA:1,_RNvNtNtCsiHEayBwtz3f_15measurekit_core5units5testss_18hash_is_same_as_id
FNDA:1,_RNvNtNtCsiHEayBwtz3f_15measurekit_core5units5testss_18repr_dimensionless
FNDA:1,_RNvNtNtCsiHEayBwtz3f_15measurekit_core5units5testss_19pow_scales_exponent
FNDA:1,_RNvNtNtCsiHEayBwtz3f_15measurekit_core5units5testss_19rational_unit_pydiv
FNDA:1,_RNvNtNtCsiHEayBwtz3f_15measurekit_core5units5testss_19rational_unit_pymul
FNDA:1,_RNvNtNtCsiHEayBwtz3f_15measurekit_core5units5testss_19rational_unit_pypow
FNDA:1,_RNvNtNtCsiHEayBwtz3f_15measurekit_core5units5testss_20div_mixed_dimensions
FNDA:1,_RNvNtNtCsiHEayBwtz3f_15measurekit_core5units5testss_20rational_unit_reduce
FNDA:1,_RNvNtNtCsiHEayBwtz3f_15measurekit_core5units5testss_21repr_fractional_power
FNDA:1,_RNvNtNtCsiHEayBwtz3f_15measurekit_core5units5testss_22calculate_id_is_stable
FNDA:1,_RNvNtNtCsiHEayBwtz3f_15measurekit_core5units5testss_22dimensionless_is_empty
FNDA:1,_RNvNtNtCsiHEayBwtz3f_15measurekit_core5units5testss_23parse_exponent_int_zero
FNDA:1,_RNvNtNtCsiHEayBwtz3f_15measurekit_core5units5testss_23pow_fractional_exponent
FNDA:1,_RNvNtNtCsiHEayBwtz3f_15measurekit_core5units5testss_24hash_used_as_hashmap_key
FNDA:1,_RNvNtNtCsiHEayBwtz3f_15measurekit_core5units5testss_24mul_then_div_is_identity
FNDA:1,_RNvNtNtCsiHEayBwtz3f_15measurekit_core5units5testss_24rational_unit_eq_and_neq
FNDA:1,_RNvNtNtCsiHEayBwtz3f_15measurekit_core5units5testss_25get_cached_unit_cache_hit
FNDA:1,_RNvNtNtCsiHEayBwtz3f_15measurekit_core5units5testss_25mul_accumulates_exponents
FNDA:1,_RNvNtNtCsiHEayBwtz3f_15measurekit_core5units5testss_25parse_exponent_float_zero
FNDA:1,_RNvNtNtCsiHEayBwtz3f_15measurekit_core5units5testss_25repr_higher_integer_power
FNDA:1,_RNvNtNtCsiHEayBwtz3f_15measurekit_core5units5testss_25unit_registry_add_derived
FNDA:1,_RNvNtNtCsiHEayBwtz3f_15measurekit_core5units5testss_26div_cancels_same_dimension
FNDA:1,_RNvNtNtCsiHEayBwtz3f_15measurekit_core5units5testss_26parse_exponent_int_nonzero
FNDA:1,_RNvNtNtCsiHEayBwtz3f_15measurekit_core5units5testss_26pow_zero_removes_dimension
FNDA:1,_RNvNtNtCsiHEayBwtz3f_15measurekit_core5units5testss_27parse_dimensions_dict_mixed
FNDA:1,_RNvNtNtCsiHEayBwtz3f_15measurekit_core5units5testss_27repr_single_unit_exponent_1
FNDA:1,_RNvNtNtCsiHEayBwtz3f_15measurekit_core5units5testss_27to_string_delegates_to_repr
FNDA:1,_RNvNtNtCsiHEayBwtz3f_15measurekit_core5units5testss_27unit_registry_get_unit_base
FNDA:1,_RNvNtNtCsiHEayBwtz3f_15measurekit_core5units5testss_28parse_exponent_float_nonzero
FNDA:1,_RNvNtNtCsiHEayBwtz3f_15measurekit_core5units5testss_28parse_exponent_tuple_nonzero
FNDA:1,_RNvNtNtCsiHEayBwtz3f_15measurekit_core5units5testss_28unit_registry_add_and_lookup
FNDA:1,_RNvNtNtCsiHEayBwtz3f_15measurekit_core5units5testss_28unit_registry_alias_resolves
FNDA:1,_RNvNtNtCsiHEayBwtz3f_15measurekit_core5units5testss_30unit_registry_get_unit_derived
FNDA:1,_RNvNtNtCsiHEayBwtz3f_15measurekit_core5units5testss_31unit_registry_new_via_pymethods
FNDA:1,_RNvNtNtCsiHEayBwtz3f_15measurekit_core5units5testss_32unit_registry_get_unit_not_found
FNDA:1,_RNvNtNtCsiHEayBwtz3f_15measurekit_core5units5testss_32unit_registry_get_unit_via_alias
FNDA:1,_RNvNtNtCsiHEayBwtz3f_15measurekit_core5units5testss_33dimensions_accessor_returns_clone
FNDA:1,_RNvNtNtCsiHEayBwtz3f_15measurekit_core5units5testss_34rational_unit_pypow_tuple_exponent
FNDA:1,_RNvNtNtCsiHEayBwtz3f_15measurekit_core5units5testss_35mul_zero_exponent_removes_dimension
FNDA:1,_RNvNtNtCsiHEayBwtz3f_15measurekit_core5units5testss_35parse_exponent_tuple_zero_numerator
FNDA:1,_RNvNtNtCsiHEayBwtz3f_15measurekit_core5units5testss_36parse_dimensions_dict_non_dict_input
FNDA:1,_RNvNtNtCsiHEayBwtz3f_15measurekit_core5units5testss_37unit_registry_resolve_caps_at_10_hops
FNDA:1,_RNvNtNtCsiHEayBwtz3f_15measurekit_core5units5testss_38calculate_id_differs_for_distinct_dims
FNDA:1,_RNvNtNtCsiHEayBwtz3f_15measurekit_core5units5testss_39get_unit_fallback_to_base_original_name
FNDA:1,_RNvNtNtCsiHEayBwtz3f_15measurekit_core5units5testss_42get_unit_fallback_to_derived_original_name
FNDA:1,_RNvNtNtCsiHEayBwtz3f_15measurekit_core5units5testss_43rational_unit_pypow_invalid_exponent_errors
FNDA:1,_RNvNtNtCsiHEayBwtz3f_15measurekit_core5units5testss_45parse_exponent_unrecognized_type_returns_none
FNDA:1,_RNvNtNtCsiHEayBwtz3f_15measurekit_core5units5testss_47rational_unit_new_pymethods_empty_and_with_dims
FNDA:1,_RNvNtNtCsiHEayBwtz3f_15measurekit_core5units5testss_51unit_registry_get_unit_via_unresolved_base_fallback
FNDA:1,_RNCNvNtNtCsiHEayBwtz3f_15measurekit_core5units5testss_19rational_unit_pydiv0B7_
FNDA:1,_RNCNvNtNtCsiHEayBwtz3f_15measurekit_core5units5testss_19rational_unit_pymul0B7_
FNDA:1,_RNCNvNtNtCsiHEayBwtz3f_15measurekit_core5units5testss_19rational_unit_pypow0B7_
FNDA:1,_RNCNvNtNtCsiHEayBwtz3f_15measurekit_core5units5testss_20rational_unit_reduce0B7_
FNDA:1,_RNCNvNtNtCsiHEayBwtz3f_15measurekit_core5units5testss_23parse_exponent_int_zero0B7_
FNDA:1,_RNCNvNtNtCsiHEayBwtz3f_15measurekit_core5units5testss_25get_cached_unit_cache_hit0B7_
FNDA:1,_RNCNvNtNtCsiHEayBwtz3f_15measurekit_core5units5testss_25parse_exponent_float_zero0B7_
FNDA:1,_RNCNvNtNtCsiHEayBwtz3f_15measurekit_core5units5testss_26parse_exponent_int_nonzero0B7_
FNDA:1,_RNCNvNtNtCsiHEayBwtz3f_15measurekit_core5units5testss_27parse_dimensions_dict_mixed0B7_
FNDA:1,_RNCNvNtNtCsiHEayBwtz3f_15measurekit_core5units5testss_27unit_registry_get_unit_base0B7_
FNDA:1,_RNCNvNtNtCsiHEayBwtz3f_15measurekit_core5units5testss_28parse_exponent_float_nonzero0B7_
FNDA:1,_RNCNvNtNtCsiHEayBwtz3f_15measurekit_core5units5testss_28parse_exponent_tuple_nonzero0B7_
FNDA:1,_RNCNvNtNtCsiHEayBwtz3f_15measurekit_core5units5testss_30unit_registry_get_unit_derived0B7_
FNDA:1,_RNCNvNtNtCsiHEayBwtz3f_15measurekit_core5units5testss_32unit_registry_get_unit_not_found0B7_
FNDA:1,_RNCNvNtNtCsiHEayBwtz3f_15measurekit_core5units5testss_32unit_registry_get_unit_via_alias0B7_
FNDA:1,_RNCNvNtNtCsiHEayBwtz3f_15measurekit_core5units5testss_34rational_unit_pypow_tuple_exponent0B7_
FNDA:1,_RNCNvNtNtCsiHEayBwtz3f_15measurekit_core5units5testss_35parse_exponent_tuple_zero_numerator0B7_
FNDA:1,_RNCNvNtNtCsiHEayBwtz3f_15measurekit_core5units5testss_36parse_dimensions_dict_non_dict_input0B7_
FNDA:1,_RNCNvNtNtCsiHEayBwtz3f_15measurekit_core5units5testss_39get_unit_fallback_to_base_original_name0B7_
FNDA:1,_RNCNvNtNtCsiHEayBwtz3f_15measurekit_core5units5testss_42get_unit_fallback_to_derived_original_name0B7_
FNDA:1,_RNCNvNtNtCsiHEayBwtz3f_15measurekit_core5units5testss_43rational_unit_pypow_invalid_exponent_errors0B7_
FNDA:1,_RNCNvNtNtCsiHEayBwtz3f_15measurekit_core5units5testss_45parse_exponent_unrecognized_type_returns_none0B7_
FNDA:1,_RNCNvNtNtCsiHEayBwtz3f_15measurekit_core5units5testss_47rational_unit_new_pymethods_empty_and_with_dims0B7_
FNDA:1,_RNCNvNtNtCsiHEayBwtz3f_15measurekit_core5units5testss_51unit_registry_get_unit_via_unresolved_base_fallback0B7_
FNDA:2,_RINvXs_NtCsiHEayBwtz3f_15measurekit_core5unitsNtB5_12RationalUnitNtNtCs27Vx93FoQ6z_4core4hash4Hash4hashNtNtNtCs75vJTIYSa2J_3std4hash6random13DefaultHasherEB7_
FNDA:2,_RNCNvMsf_NtCsiHEayBwtz3f_15measurekit_core5unitsNtB7_12RationalUnit3new0B9_
FNDA:1,_RNCNvNtCsiHEayBwtz3f_15measurekit_core5units15get_cached_unit0B5_
FNF:105
FNH:104
DA:15,12
DA:16,12
DA:17,12
DA:18,12
DA:19,4
DA:20,8
DA:21,8
DA:22,8
DA:23,8
DA:24,8
DA:25,12
DA:39,7
DA:40,7
DA:41,7
DA:45,2
DA:46,2
DA:47,2
DA:51,12
DA:52,12
DA:53,3
DA:54,9
DA:55,6
DA:56,3
DA:57,2
DA:58,1
DA:59,1
DA:60,1
DA:61,1
DA:62,5
DA:63,12
DA:65,4
DA:66,4
DA:67,4
DA:68,5
DA:69,5
DA:70,5
DA:71,4
DA:72,4
DA:74,1
DA:75,4
DA:76,4
DA:78,91
DA:79,91
DA:80,92
DA:81,92
DA:82,92
DA:83,92
DA:84,92
DA:85,92
DA:86,91
DA:87,91
DA:89,87
DA:90,87
DA:91,87
DA:92,87
DA:95,7
DA:96,7
DA:97,7
DA:98,7
DA:99,7
DA:100,7
DA:101,7
DA:102,7
DA:103,1
DA:104,6
DA:105,6
DA:106,6
DA:108,7
DA:109,7
DA:111,7
DA:112,7
DA:113,7
DA:114,7
DA:115,7
DA:116,7
DA:117,7
DA:118,7
DA:119,3
DA:120,4
DA:121,4
DA:122,4
DA:124,7
DA:125,7
DA:127,6
DA:128,6
DA:129,6
DA:130,6
DA:131,6
DA:132,6
DA:133,5
DA:134,5
DA:136,6
DA:137,6

DA:144,3
DA:145,3
DA:146,1
DA:147,2
DA:148,1
DA:150,1
DA:152,3
DA:153,3
DA:154,3
DA:156,1
DA:157,1
DA:158,1
DA:160,1
DA:161,1
DA:162,1
DA:164,3
DA:165,3
DA:166,1
DA:167,2
DA:168,1
DA:170,1
DA:171,1
DA:172,1
DA:174,2
DA:175,3
DA:177,2
DA:178,2
DA:179,2
DA:181,1
DA:182,1
DA:183,1
DA:187,5
DA:188,5
DA:189,1
DA:190,4
DA:191,4
DA:192,4
DA:193,4
DA:194,4
DA:195,4
DA:196,4
DA:197,2
DA:198,2
DA:199,1
DA:200,1
DA:201,1
DA:202,1
DA:204,4
DA:205,5
DA:208,2
DA:209,2
DA:210,2
DA:212,1
DA:213,1
DA:214,1
DA:215,1
DA:216,1
DA:217,1
DA:220,1
DA:221,1
DA:222,1
DA:236,1
DA:237,1
DA:238,1
DA:239,1
DA:240,1
DA:241,1
DA:242,1
DA:244,7
DA:245,7
DA:246,7
DA:247,7
DA:248,7
DA:249,7
DA:251,3
DA:252,3
DA:253,3
DA:255,16
DA:256,16
DA:257,16
DA:258,16
DA:260,13
DA:261,13
DA:262,13
DA:263,27
DA:264,15
DA:265,15
DA:266,12
DA:269,1
DA:270,13
DA:272,7
DA:273,7
DA:274,7
DA:275,3
DA:276,4
DA:277,1
DA:279,3
DA:280,1
DA:281,2
DA:282,2
DA:283,1
DA:284,1
DA:285,1
DA:287,7
DA:289,4
DA:290,4
DA:291,4
DA:292,4
DA:303,34
DA:304,34
DA:305,34
DA:307,8
DA:308,8
DA:309,8
DA:312,1
DA:313,1
DA:314,1
DA:315,1
DA:316,1
DA:319,1
DA:320,1
DA:321,1
DA:322,1
DA:323,1
DA:326,1
DA:327,1
DA:328,1
DA:331,1
DA:332,1
DA:333,1
DA:334,1
DA:335,1
DA:338,1
DA:339,1
DA:340,1
DA:341,1
DA:344,1
DA:345,1
DA:346,1
DA:347,1
DA:350,1
DA:351,1
DA:352,1
DA:353,1
DA:356,1
DA:357,1
DA:358,1
DA:359,1
DA:360,1
DA:363,1
DA:364,1
DA:365,1
DA:366,1
DA:367,1
DA:370,1
DA:371,1
DA:372,1
DA:373,1
DA:376,1
DA:377,1
DA:378,1
DA:379,1
DA:382,1
DA:383,1
DA:384,1
DA:387,1
DA:388,1
DA:389,1
DA:390,1
DA:393,1
DA:394,1
DA:395,1
DA:396,1
DA:399,1
DA:400,1
DA:401,1
DA:402,1
DA:405,1
DA:406,1
DA:407,1
DA:408,1
DA:409,1
DA:410,1
DA:413,1
DA:414,1
DA:415,1
DA:418,1
DA:419,1
DA:420,1
DA:421,1
DA:422,1
DA:423,1
DA:424,1
DA:425,1
DA:426,1
DA:427,1
DA:430,1
DA:431,1
DA:432,1
DA:433,1
DA:434,1
DA:435,1
DA:436,1
DA:437,1
DA:438,1
DA:439,1
DA:440,1
DA:443,1
DA:444,1
DA:445,1
DA:446,1
DA:447,1
DA:448,1
DA:449,1
DA:450,1
DA:451,1
DA:452,1
DA:455,1
DA:456,1
DA:457,1
DA:458,1
DA:459,1
DA:460,1
DA:461,1
DA:464,1
DA:465,1
DA:466,1
DA:467,1
DA:468,1
DA:469,1
DA:470,1
DA:473,1
DA:474,1
DA:475,1
DA:476,1
DA:477,1
DA:478,1
DA:479,1
DA:482,1
DA:483,1
DA:484,1
DA:485,1
DA:486,1
DA:487,1
DA:488,1
DA:491,1
DA:492,1
DA:493,1
DA:494,1
DA:495,1
DA:496,1
DA:497,1
DA:500,1
DA:501,1
DA:502,1
DA:503,1
DA:504,1
DA:505,1
DA:506,1
DA:509,1
DA:510,1
DA:511,1
DA:513,1
DA:514,1
DA:515,1
DA:516,1
DA:519,1
DA:520,1
DA:521,1
DA:523,1
DA:524,1
DA:525,1
DA:526,1
DA:527,1
DA:530,1
DA:531,1
DA:532,1
DA:533,1
DA:534,1
DA:535,1
DA:536,1
DA:537,1
DA:538,1
DA:539,1
DA:540,1
DA:541,1
DA:542,1
DA:545,1
DA:546,1
DA:547,1
DA:548,1
DA:549,1
DA:550,1
DA:551,1
DA:552,1
DA:553,1
DA:556,1
DA:557,1
DA:558,1
DA:559,1
DA:560,1
DA:561,1
DA:562,1
DA:563,1
DA:566,1
DA:567,1
DA:568,1
DA:569,1
DA:570,1
DA:571,1
DA:572,1
DA:573,1
DA:574,1
DA:577,1
DA:578,1
DA:579,1
DA:580,1
DA:581,1
DA:582,1
DA:583,1
DA:584,1
DA:585,1
DA:586,1
DA:587,1
DA:588,1
DA:589,1
DA:590,1
DA:593,1
DA:594,1
DA:595,1
DA:596,1
DA:597,1
DA:598,1
DA:599,1
DA:600,1
DA:601,1
DA:602,1
DA:603,1
DA:604,1
DA:605,1
DA:606,1
DA:607,1
DA:610,1
DA:611,1
DA:612,1
DA:613,1
DA:614,1
DA:615,1
DA:616,1
DA:617,1
DA:618,1
DA:619,1
DA:620,1
DA:621,1
DA:622,1
DA:623,1
DA:624,1
DA:627,1
DA:628,1
DA:629,1
DA:630,1
DA:631,1
DA:632,1
DA:633,1
DA:634,1
DA:635,1
DA:636,1
DA:637,1
DA:640,1
DA:641,1
DA:642,1
DA:643,1
DA:644,1
DA:645,1
DA:646,1
DA:649,1
DA:650,1
DA:651,1
DA:653,1
DA:654,1
DA:655,1
DA:656,1
DA:657,1
DA:658,1
DA:661,1
DA:662,1
DA:663,1
DA:664,1
DA:667,1
DA:668,1
DA:669,1
DA:670,1
DA:671,1
DA:672,1
DA:673,12
DA:674,12
DA:675,12
DA:676,1
DA:677,1
DA:678,1
DA:679,1
DA:682,1
DA:683,1
DA:684,1
DA:685,1
DA:688,1
DA:689,1
DA:690,1
DA:691,1
DA:692,1
DA:695,1
DA:696,1
DA:697,1
DA:698,1
DA:701,1
DA:702,1
DA:703,1
DA:704,1
DA:705,1
DA:706,1
DA:707,1
DA:708,1
DA:709,1
DA:712,1
DA:713,1
DA:714,1
DA:717,1
DA:718,1
DA:719,1
DA:722,1
DA:723,1
DA:724,1
DA:725,1
DA:726,1
DA:729,1
DA:730,1
DA:731,1
DA:732,1
DA:733,1
DA:734,1
DA:737,1
DA:738,1
DA:739,1
DA:740,1
DA:741,1
DA:742,1
DA:743,1
DA:744,1
DA:745,1
DA:748,1
DA:749,1
DA:750,1
DA:751,1
DA:752,1
DA:753,1
DA:754,1
DA:757,1
DA:758,1
DA:759,1
DA:760,1
DA:763,1
DA:764,1
DA:765,1
DA:766,1
DA:767,1
DA:768,1
DA:769,1
DA:770,1
DA:771,1
DA:772,1
DA:773,1
DA:774,1
DA:775,1
DA:776,1
DA:777,1
DA:780,1
DA:781,1
DA:782,1
DA:783,1
DA:784,1
DA:785,1
DA:786,1
DA:787,1
DA:788,1
DA:789,1
DA:790,1
DA:791,1
DA:792,1
DA:793,1
DA:794,1
DA:795,1
BRF:0
BRH:0
LF:611
LH:610
end_of_record